ARM Linker, 4.1 [Build 481] [Standard]

==============================================================================

Section Cross References

    main.o(.text) refers to printfa.o(i.__0printf) for __2printf
    startup_venus.o(RESET) refers to startup_venus.o(.bss) for __initial_sp
    startup_venus.o(RESET) refers to startup_venus.o(.text) for Reset_Handler
    startup_venus.o(RESET) refers to wm_rtos.o(.emb_text) for SVC_Handler
    startup_venus.o(RESET) refers to wm_rtos.o(.text) for OS_CPU_SysTickHandler
    startup_venus.o(RESET) refers to wm_driver.o(.text) for SDIO_RX_IRQHandler
    startup_venus.o(RESET) refers to tls_wl_core.o(.text) for tls_wl_mac_isr
    startup_venus.o(RESET) refers to wm_common.o(.text) for RSA_IRQHandler
    startup_venus.o(.text) refers to wm_driver.o(.text) for Uart0Init
    startup_venus.o(.text) refers to entry.o(.ARM.Collect$$$$00000000) for __main
    retarget.o(.text) refers to strlen.o(.text) for strlen
    retarget.o(.text) refers to retarget.o(.bss) for .bss
    wm_main.o(.text) refers to wm_driver.o(.text) for tls_sys_clk_get
    wm_main.o(.text) refers to misc.o(.text) for NVIC_PriorityGroupConfig
    wm_main.o(.text) refers to wm_common.o(.text) for tls_crypto_init
    wm_main.o(.text) refers to tls_wl_core.o(.text) for tls_wifi_mem_cfg
    wm_main.o(.text) refers to wpa_supplicant.o(.text) for wpa_supplicant_init
    wm_main.o(.text) refers to lwip2.0.3.o(.text) for tls_ethernet_init
    wm_main.o(.text) refers to tls_sys.o(.text) for tls_sys_init
    wm_main.o(.text) refers to wm_cmd.o(.text) for tls_hostif_init
    wm_main.o(.text) refers to wm_http_compile.o(.text) for http_client_task_init
    wm_main.o(.text) refers to main.o(.text) for UserMain
    wm_main.o(.text) refers to wm_rtos.o(.text) for tls_os_time_delay
    wm_main.o(.text) refers to wm_rtos.o(.constdata) for HZ
    wm_main.o(.text) refers to tls_wl_core.o(.bss) for tx_gain_group
    wm_main.o(.text) refers to wm_main.o(.data) for .data
    wm_main.o(.text) refers to wm_main.o(.bss) for .bss
    tls_sys.o(.text) refers to wm_common.o(.text) for mem_alloc_debug
    tls_sys.o(.text) refers to memmove.o(.text) for __aeabi_memcpy
    tls_sys.o(.text) refers to wm_wifi_api.o(.text) for tls_wifi_softap_create
    tls_sys.o(.text) refers to wm_rtos.o(.text) for tls_os_queue_receive
    tls_sys.o(.text) refers to lwip2.0.3.o(.text) for tls_netif2_set_up
    tls_sys.o(.text) refers to tls_sys.o(.data) for .data
    tls_sys.o(.text) refers to tls_sys.o(.bss) for .bss
    wm_driver.o(.text) refers to wm_rtos.o(.text) for tls_os_sem_release
    wm_driver.o(.text) refers to wm_driver.o(.constdata) for .constdata
    wm_driver.o(.text) refers to wm_driver.o(.bss) for .bss
    wm_driver.o(.text) refers to wm_common.o(.text) for mem_free_debug
    wm_driver.o(.text) refers to memmove.o(.text) for __aeabi_memcpy
    wm_driver.o(.text) refers to misc.o(.text) for NVIC_Configration
    wm_driver.o(.text) refers to memseta.o(.text) for __aeabi_memclr4
    wm_driver.o(.text) refers to printfa.o(i.__0printf) for __2printf
    wm_driver.o(.text) refers to wm_driver.o(.data) for .data
    wm_driver.o(.text) refers to memcmp.o(.text) for memcmp
    wm_driver.o(.data) refers to wm_driver.o(.text) for tls_spifls_drv_read
    wm_common.o(.text) refers to _scanf_int.o(.text) for _scanf_int
    wm_common.o(.text) refers to _scanf_str.o(.text) for _scanf_string
    wm_common.o(.text) refers to wm_rtos.o(.text) for tls_get_isr_count
    wm_common.o(.text) refers to mallocr.o(i.__free$realloc) for free
    wm_common.o(.text) refers to printfa.o(i.__0printf) for __2printf
    wm_common.o(.text) refers to mallocr.o(i.__malloc$realloc) for malloc
    wm_common.o(.text) refers to wm_driver.o(.text) for tls_watchdog_clr
    wm_common.o(.text) refers to memmove.o(.text) for __aeabi_memcpy
    wm_common.o(.text) refers to wm_wifi_oneshot.o(.text) for tls_wifi_set_oneshot_flag
    wm_common.o(.text) refers to wm_wifi_api.o(.text) for tls_wifi_auto_connect_flag
    wm_common.o(.text) refers to wm_common.o(.data) for .data
    wm_common.o(.text) refers to strcpy.o(.text) for strcpy
    wm_common.o(.text) refers to strlen.o(.text) for strlen
    wm_common.o(.text) refers to strncpy.o(.text) for strncpy
    wm_common.o(.text) refers to memseta.o(.text) for __aeabi_memclr4
    wm_common.o(.text) refers to rand.o(.text) for rand
    wm_common.o(.text) refers to wm_common.o(.bss) for .bss
    wm_common.o(.text) refers to wm_rtos.o(.constdata) for HZ
    wm_common.o(.text) refers to wm_common.o(.constdata) for .constdata
    wm_common.o(.text) refers to printfa.o(i.__0sprintf) for __2sprintf
    wm_common.o(.text) refers to atoi.o(.text) for atoi
    wm_common.o(.text) refers to __0sscanf.o(.text) for __0sscanf
    wm_common.o(.text) refers to libtommath.o(.text) for mp_reverse
    wm_common.o(.text) refers to wm_matrixssl_compile.o(.text) for _psError
    wm_common.o(.text) refers to sha256.o(.text) for sha256_done
    wm_common.o(.text) refers to memcmp.o(.text) for memcmp
    wm_common.o(.text) refers to random.o(.text) for random_get_bytes
    wm_common.o(.text) refers to mallocr.o(i.realloc) for realloc
    wm_common.o(.text) refers to startup_venus.o(HEAP) for __heap_limit
    dhcp_server.o(.text) refers to wm_common.o(.text) for mem_alloc_debug
    dhcp_server.o(.text) refers to memseta.o(.text) for __aeabi_memclr
    dhcp_server.o(.text) refers to wm_wifi_api.o(.text) for tls_wifi_get_authed_sta_info
    dhcp_server.o(.text) refers to lwip2.0.3.o(.text) for sys_timeout_p
    dhcp_server.o(.text) refers to memcmp.o(.text) for memcmp
    dhcp_server.o(.text) refers to dhcp_server.o(.bss) for .bss
    dhcp_server.o(.text) refers to lwip2.0.3.o(.constdata) for ip_addr_broadcast
    dhcp_server.o(.text) refers to wpa_supplicant.o(.text) for wpa_supplicant_get_mac
    dns_server.o(.text) refers to strlen.o(.text) for strlen
    dns_server.o(.text) refers to wm_common.o(.text) for mem_alloc_debug
    dns_server.o(.text) refers to lwip2.0.3.o(.text) for lwip_htons
    dns_server.o(.text) refers to memmove.o(.text) for __aeabi_memcpy
    dns_server.o(.text) refers to memseta.o(.text) for __aeabi_memclr4
    dns_server.o(.text) refers to dns_server.o(.bss) for .bss
    dns_server.o(.text) refers to lwip2.0.3.o(.constdata) for ip_addr_any
    wm_wifi_oneshot.o(.text) refers to strcpy.o(.text) for strcpy
    wm_wifi_oneshot.o(.text) refers to wm_rtos.o(.text) for tls_os_queue_send
    wm_wifi_oneshot.o(.text) refers to wm_driver.o(.text) for tls_get_mac_addr
    wm_wifi_oneshot.o(.text) refers to printfa.o(i.__0sprintf) for __2sprintf
    wm_wifi_oneshot.o(.text) refers to wm_common.o(.text) for tls_param_get
    wm_wifi_oneshot.o(.text) refers to memseta.o(.text) for __aeabi_memclr4
    wm_wifi_oneshot.o(.text) refers to memmove.o(.text) for __aeabi_memcpy4
    wm_wifi_oneshot.o(.text) refers to wm_wifi_api.o(.text) for tls_wifi_softap_create
    wm_wifi_oneshot.o(.text) refers to lwip2.0.3.o(.text) for tls_socket_close
    wm_wifi_oneshot.o(.text) refers to strstr.o(.text) for strstr
    wm_wifi_oneshot.o(.text) refers to strncpy.o(.text) for strncpy
    wm_wifi_oneshot.o(.text) refers to strlen.o(.text) for strlen
    wm_wifi_oneshot.o(.text) refers to wm_wifi_oneshot.o(.data) for .data
    wm_wifi_oneshot.o(.text) refers to wm_wifi_oneshot.o(.bss) for .bss
    wm_wifi_oneshot.o(.text) refers to wm_rtos.o(.constdata) for HZ
    wm_wifi_oneshot.o(.text) refers to wm_oneshot_airkiss.o(.text) for tls_airkiss_stop
    wm_wifi_oneshot.o(.text) refers to memcmp.o(.text) for memcmp
    wm_wifi_oneshot.o(.text) refers to printfa.o(i.__0printf) for __2printf
    wm_wifi_oneshot.o(.text) refers to wm_oneshot_lsd.o(.text) for tls_lsd_recv
    wm_wifi_oneshot.o(.text) refers to wm_oneshot_lsd.o(.bss) for lsd_param
    wm_wifi_oneshot.o(.text) refers to tls_wl_hw.o(.text) for tls_wl_change_channel_info
    wm_wifi_oneshot.o(.text) refers to wm_wifi_oneshot_api.o(.text) for tls_wifi_decode_new_oneshot_data
    wm_wifi_oneshot.o(.text) refers to httpd.o(.text) for httpd_deinit
    wm_wifi_oneshot.o(.text) refers to wm_main.o(.text) for tls_os_timer_init
    wm_wifi_oneshot.o(.text) refers to wm_oneshot_airkiss.o(.data) for is_airkiss
    wm_oneshot_airkiss.o(.text) refers to lwip2.0.3.o(.text) for socket
    wm_oneshot_airkiss.o(.text) refers to printfa.o(i.__0printf) for __2printf
    wm_oneshot_airkiss.o(.text) refers to wm_wifi_oneshot.o(.text) for tls_wifi_get_oneshot_flag
    wm_oneshot_airkiss.o(.text) refers to wm_rtos.o(.text) for tls_os_time_delay
    wm_oneshot_airkiss.o(.text) refers to airkiss_log.o(.text) for airkiss_get_result
    wm_oneshot_airkiss.o(.text) refers to wm_wifi_api.o(.text) for tls_wifi_connect_by_ssid_bssid
    wm_oneshot_airkiss.o(.text) refers to strstr.o(.text) for strstr
    wm_oneshot_airkiss.o(.text) refers to wm_oneshot_airkiss.o(.data) for .data
    wm_oneshot_airkiss.o(.text) refers to wm_oneshot_airkiss.o(.bss) for .bss
    wm_oneshot_airkiss.o(.text) refers to wm_oneshot_airkiss.o(.constdata) for .constdata
    wm_oneshot_airkiss.o(.constdata) refers to memseta.o(.text) for memset
    wm_oneshot_airkiss.o(.constdata) refers to memmove.o(.text) for memcpy
    wm_oneshot_airkiss.o(.constdata) refers to memcmp.o(.text) for memcmp
    wm_oneshot_airkiss.o(.constdata) refers to wm_oneshot_airkiss.o(.text) for oneshot_airkiss_printf
    wm_oneshot_lsd.o(.text) refers to memmove.o(.text) for __aeabi_memcpy
    wm_oneshot_lsd.o(.text) refers to memcmp.o(.text) for memcmp
    wm_oneshot_lsd.o(.text) refers to memseta.o(.text) for __aeabi_memclr
    wm_oneshot_lsd.o(.text) refers to wm_oneshot_lsd.o(.data) for .data
    wm_oneshot_lsd.o(.text) refers to wm_oneshot_lsd.o(.constdata) for .constdata
    wm_oneshot_lsd.o(.text) refers to wm_oneshot_lsd.o(.bss) for .bss
    wm_cmd.o(.text) refers to wm_common.o(.text) for tls_param_get
    wm_cmd.o(.text) refers to strlen.o(.text) for strlen
    wm_cmd.o(.text) refers to memmove.o(.text) for __aeabi_memcpy4
    wm_cmd.o(.text) refers to wm_driver.o(.text) for tls_sys_reset
    wm_cmd.o(.text) refers to wm_rtos.o(.text) for tls_os_timer_create
    wm_cmd.o(.text) refers to wm_wifi_oneshot.o(.text) for tls_wifi_get_oneshot_flag
    wm_cmd.o(.text) refers to tls_wl_if.o(.text) for tls_wl_if_ps
    wm_cmd.o(.text) refers to printfa.o(i.__0sprintf) for __2sprintf
    wm_cmd.o(.text) refers to wm_cmd.o(.data) for .data
    wm_cmd.o(.text) refers to wm_main.o(.constdata) for HwVer
    wm_cmd.o(.text) refers to wm_main.o(.constdata) for FirmWareVer
    wm_cmd.o(.text) refers to wm_cmd.o(.bss) for .bss
    wm_cmd.o(.text) refers to wm_rtos.o(.constdata) for HZ
    wm_cmd.o(.text) refers to wm_driver.o(.bss) for uart_port
    wm_cmd.o(.text) refers to wm_wifi_api.o(.text) for tls_wifi_get_scan_rslt
    wm_cmd.o(.text) refers to memseta.o(.text) for __aeabi_memclr
    wm_cmd.o(.text) refers to lwip2.0.3.o(.text) for tls_netif_get_ethif
    wm_cmd.o(.text) refers to strcpy.o(.text) for strcpy
    wm_cmd.o(.text) refers to strcmp.o(.text) for strcmp
    wm_cmd.o(.text) refers to wm_cmd.o(.constdata) for .constdata
    wm_cmd.o(.text) refers to strcat.o(.text) for strcat
    wm_cmd.o(.text) refers to litepoint.o(.text) for tls_tx_litepoint_test_get_totalsnd
    wm_cmd.o(.text) refers to tls_wl_rf.o(.text) for rf_spi_read
    wm_cmd.o(.text) refers to strchr.o(.text) for strchr
    wm_cmd.o(.text) refers to toupper.o(.text) for toupper
    wm_cmd.o(.text) refers to wm_http_compile.o(.text) for http_client_post
    wm_cmd.o(.text) refers to wm_http_fwup.o(.text) for t_http_fwup
    wm_cmd.o(.text) refers to wpa_supplicant.o(.text) for wpa_supplicant_get_mac
    wm_cmd.o(.text) refers to ap.o(.text) for hostapd_get_mac
    wm_cmd.o(.text) refers to wm_common.o(.bss) for user_default_param
    wm_cmd.o(.text) refers to tls_wl_core.o(.text) for ieee80211_get_tx_gain
    wm_cmd.o(.text) refers to ping.o(.text) for ping_test_create_task
    wm_cmd.o(.text) refers to printfa.o(i.__0printf) for __2printf
    wm_cmd.o(.text) refers to memchr.o(.text) for memchr
    wm_cmd.o(.data) refers to wm_cmd.o(.conststring) for .conststring
    wm_cmd.o(.data) refers to wm_cmd.o(.bss) for hostif_stk
    wm_cmd.o(.data) refers to wm_cmd.o(.text) for z_proc
    wm_rtos.o(.emb_text) refers to wm_rtos.o(.text) for vTaskSwitchContext
    wm_rtos.o(.emb_text) refers to wm_rtos.o(.data) for pxCurrentTCB
    wm_rtos.o(.text) refers to wm_rtos.o(.emb_text) for portENABLE_INTERRUPTS
    wm_rtos.o(.text) refers to memseta.o(.text) for __aeabi_memset
    wm_rtos.o(.text) refers to strncpy.o(.text) for strncpy
    wm_rtos.o(.text) refers to wm_rtos.o(.data) for .data
    wm_rtos.o(.text) refers to wm_rtos.o(.bss) for .bss
    wm_rtos.o(.text) refers to printfa.o(i.__0printf) for __2printf
    wm_rtos.o(.text) refers to memcmp.o(.text) for memcmp
    wm_rtos.o(.text) refers to wm_rtos.o(.constdata) for .constdata
    wm_rtos.o(.text) refers to memmove.o(.text) for __aeabi_memcpy
    wm_rtos.o(.text) refers to wm_common.o(.text) for mem_alloc_debug
    wm_rtos.o(.text) refers to startup_venus.o(HEAP) for __heap_base
    wm_rtos.o(.text) refers to printfa.o(i.__0sprintf) for __2sprintf
    wm_rtos.o(.text) refers to strcat.o(.text) for strcat
    wm_rtos.o(.text) refers to strcpy.o(.text) for strcpy
    wm_rtos.o(.text) refers to wm_main.o(.text) for vApplicationIdleHook
    lwip2.0.3.o(.text) refers to wm_common.o(.text) for mem_free_debug
    lwip2.0.3.o(.text) refers to wm_rtos.o(.text) for tls_os_release_critical
    lwip2.0.3.o(.text) refers to lwip2.0.3.o(.constdata) for .constdata
    lwip2.0.3.o(.text) refers to lwip2.0.3.o(.data) for .data
    lwip2.0.3.o(.text) refers to memmove.o(.text) for __aeabi_memcpy
    lwip2.0.3.o(.text) refers to lwip2.0.3.o(.bss) for .bss
    lwip2.0.3.o(.text) refers to wm_rtos.o(.constdata) for HZ
    lwip2.0.3.o(.text) refers to memseta.o(.text) for __aeabi_memclr4
    lwip2.0.3.o(.text) refers to errno.o(i.__aeabi_errno_addr) for __aeabi_errno_addr
    lwip2.0.3.o(.text) refers to tls_wl_core.o(.text) for tls_wl_get_isr_count
    lwip2.0.3.o(.text) refers to rand.o(.text) for srand
    lwip2.0.3.o(.text) refers to strlen.o(.text) for strlen
    lwip2.0.3.o(.text) refers to strcmp.o(.text) for strcmp
    lwip2.0.3.o(.text) refers to strncpy.o(.text) for strncpy
    lwip2.0.3.o(.text) refers to printfa.o(i.__0printf) for __2printf
    lwip2.0.3.o(.text) refers to strncmp.o(.text) for strncmp
    lwip2.0.3.o(.text) refers to memcmp.o(.text) for memcmp
    lwip2.0.3.o(.text) refers to ap.o(.text) for hostapd_get_mac
    lwip2.0.3.o(.text) refers to tls_wl_tx.o(.text) for tls_wifi_buffer_acquire
    lwip2.0.3.o(.text) refers to tls_wl_hw.o(.text) for tls_hw_set_multicast_key
    lwip2.0.3.o(.text) refers to wpa_supplicant.o(.text) for wpa_supplicant_get_mac
    lwip2.0.3.o(.text) refers to wm_wifi_oneshot.o(.text) for tls_wifi_get_oneshot_flag
    lwip2.0.3.o(.text) refers to wm_wifi_api.o(.text) for tls_ethernet_data_rx_callback
    lwip2.0.3.o(.text) refers to dhcp_server.o(.text) for DHCPS_Start
    lwip2.0.3.o(.text) refers to dns_server.o(.text) for DNSS_Start
    lwip2.0.3.o(.text) refers to atoi.o(.text) for atoi
    lwip2.0.3.o(.constdata) refers to lwip2.0.3.o(.constdata) for memp_RAW_PCB
    lwip2.0.3.o(.constdata) refers to lwip2.0.3.o(.constdata) for memp_UDP_PCB
    lwip2.0.3.o(.constdata) refers to lwip2.0.3.o(.constdata) for memp_TCP_PCB
    lwip2.0.3.o(.constdata) refers to lwip2.0.3.o(.constdata) for memp_TCP_PCB_LISTEN
    lwip2.0.3.o(.constdata) refers to lwip2.0.3.o(.constdata) for memp_TCP_SEG
    lwip2.0.3.o(.constdata) refers to lwip2.0.3.o(.constdata) for memp_REASSDATA
    lwip2.0.3.o(.constdata) refers to lwip2.0.3.o(.constdata) for memp_FRAG_PBUF
    lwip2.0.3.o(.constdata) refers to lwip2.0.3.o(.constdata) for memp_NETBUF
    lwip2.0.3.o(.constdata) refers to lwip2.0.3.o(.constdata) for memp_NETCONN
    lwip2.0.3.o(.constdata) refers to lwip2.0.3.o(.constdata) for memp_TCPIP_MSG_API
    lwip2.0.3.o(.constdata) refers to lwip2.0.3.o(.constdata) for memp_TCPIP_MSG_INPKT
    lwip2.0.3.o(.constdata) refers to lwip2.0.3.o(.constdata) for memp_IGMP_GROUP
    lwip2.0.3.o(.constdata) refers to lwip2.0.3.o(.constdata) for memp_SYS_TIMEOUT
    lwip2.0.3.o(.constdata) refers to lwip2.0.3.o(.constdata) for memp_NETDB
    lwip2.0.3.o(.constdata) refers to lwip2.0.3.o(.constdata) for memp_PBUF
    lwip2.0.3.o(.constdata) refers to lwip2.0.3.o(.constdata) for memp_PBUF_POOL
    lwip2.0.3.o(.constdata) refers to lwip2.0.3.o(.conststring) for .conststring
    lwip2.0.3.o(.constdata) refers to lwip2.0.3.o(.data) for tcp_listen_pcbs
    lwip2.0.3.o(.constdata) refers to lwip2.0.3.o(.text) for tcp_tmr
    ntp_client.o(.text) refers to wm_common.o(.text) for tls_param_get
    ntp_client.o(.text) refers to lwip2.0.3.o(.text) for lwip_gethostbyname
    ntp_client.o(.text) refers to memmove.o(.text) for __aeabi_memcpy
    ntp_client.o(.text) refers to memseta.o(.text) for __aeabi_memclr
    ntp_client.o(.text) refers to strlen.o(.text) for strlen
    ntp_client.o(.text) refers to memcmp.o(.text) for memcmp
    ntp_client.o(.text) refers to printfa.o(i.__0sprintf) for __2sprintf
    ntp_client.o(.text) refers to printfa.o(i.__0printf) for __2printf
    ntp_client.o(.text) refers to ntp_client.o(.constdata) for .constdata
    ntp_client.o(.text) refers to ntp_client.o(.bss) for .bss
    base64-decode.o(.text) refers to base64-decode.o(.constdata) for .constdata
    client.o(.text) refers to parsers.o(.text) for lws_rx_sm
    client.o(.text) refers to service.o(.text) for lws_rxflow_cache
    client.o(.text) refers to client-parser.o(.text) for lws_client_rx_sm
    client.o(.text) refers to libwebsockets.o(.text) for lws_union_transition
    client.o(.text) refers to atoi.o(.text) for atoi
    client.o(.text) refers to strcmp.o(.text) for strcmp
    client.o(.text) refers to client-handshake.o(.text) for lws_client_reset
    client.o(.text) refers to strncmp.o(.text) for strncmp
    client.o(.text) refers to strlen.o(.text) for strlen
    client.o(.text) refers to lws-plat-wm.o(.text) for lws_malloc
    client.o(.text) refers to base64-decode.o(.text) for lws_b64_encode_string
    client.o(.text) refers to printfa.o(i.__0sprintf) for __2sprintf
    client.o(.text) refers to strcpy.o(.text) for strcpy
    client.o(.text) refers to sha1_internal.o(.text) for sha1
    client.o(.text) refers to lwip2.0.3.o(.text) for recv
    client.o(.text) refers to errno.o(i.__aeabi_errno_addr) for __aeabi_errno_addr
    client.o(.text) refers to pollfd.o(.text) for lws_change_pollfd
    client.o(.text) refers to output.o(.text) for lws_ssl_capable_write_no_ssl
    client.o(.text) refers to tolower.o(.text) for tolower
    client-handshake.o(.text) refers to parsers.o(.text) for lws_hdr_simple_ptr
    client-handshake.o(.text) refers to printfa.o(i.__0sprintf) for __2sprintf
    client-handshake.o(.text) refers to memseta.o(.text) for __aeabi_memclr4
    client-handshake.o(.text) refers to lwip2.0.3.o(.text) for lwip_getaddrinfo
    client-handshake.o(.text) refers to libwebsockets.o(.text) for _lws_log
    client-handshake.o(.text) refers to lws-plat-wm.o(.text) for lws_plat_set_socket_options
    client-handshake.o(.text) refers to pollfd.o(.text) for insert_wsi_socket_into_fds
    client-handshake.o(.text) refers to service.o(.text) for lws_service_fd
    client-handshake.o(.text) refers to strlen.o(.text) for strlen
    client-handshake.o(.text) refers to context.o(.text) for lws_protocol_init
    client-handshake.o(.text) refers to client-handshake.o(.constdata) for .constdata
    client-handshake.o(.text) refers to strncpy.o(.text) for strncpy
    client-handshake.o(.text) refers to errno.o(i.__aeabi_errno_addr) for __aeabi_errno_addr
    client-parser.o(.text) refers to libwebsockets.o(.text) for _lws_log
    client-parser.o(.text) refers to output.o(.text) for lws_write
    client-parser.o(.text) refers to memmove.o(.text) for __aeabi_memcpy
    client-parser.o(.text) refers to pollfd.o(.text) for lws_callback_on_writable
    context.o(.text) refers to lws-plat-wm.o(.text) for lws_zalloc
    context.o(.text) refers to strcmp.o(.text) for strcmp
    context.o(.text) refers to libwebsockets.o(.text) for _lws_log
    context.o(.text) refers to memseta.o(.text) for __aeabi_memclr4
    context.o(.text) refers to memmove.o(.text) for __aeabi_memcpy4
    context.o(.text) refers to context.o(.data) for .data
    context.o(.text) refers to context.o(.constdata) for .constdata
    context.o(.text) refers to wm_rtos.o(.text) for tls_os_get_time
    context.o(.text) refers to strlen.o(.text) for strlen
    context.o(.text) refers to strcpy.o(.text) for strcpy
    context.o(.text) refers to wm_rtos.o(.constdata) for HZ
    context.o(.constdata) refers to context.o(.conststring) for .conststring
    context.o(.constdata) refers to context.o(.text) for lws_callback_http_dummy
    context.o(.data) refers to context.o(.conststring) for .conststring
    handshake.o(.text) refers to libwebsockets.o(.text) for _lws_log
    handshake.o(.text) refers to client.o(.text) for lws_handshake_client
    handshake.o(.text) refers to handshake.o(.constdata) for .constdata
    header.o(.text) refers to memmove.o(.text) for __aeabi_memcpy
    header.o(.text) refers to printfa.o(i.__0sprintf) for __2sprintf
    header.o(.text) refers to strlen.o(.text) for strlen
    header.o(.text) refers to libwebsockets.o(.text) for lws_get_context
    header.o(.text) refers to output.o(.text) for lws_write
    header.o(.text) refers to header.o(.constdata) for .constdata
    header.o(.constdata) refers to header.o(.conststring) for .conststring
    libwebsockets.o(.text) refers to lws-plat-wm.o(.text) for lws_free
    libwebsockets.o(.text) refers to parsers.o(.text) for lws_header_table_detach
    libwebsockets.o(.text) refers to wm_rtos.o(.text) for tls_os_get_time
    libwebsockets.o(.text) refers to lwip2.0.3.o(.text) for closesocket
    libwebsockets.o(.text) refers to printfa.o(i.__0vprintf) for vprintf
    libwebsockets.o(.text) refers to pollfd.o(.text) for lws_callback_on_writable
    libwebsockets.o(.text) refers to output.o(.text) for lws_write
    libwebsockets.o(.text) refers to wm_rtos.o(.constdata) for HZ
    libwebsockets.o(.text) refers to libwebsockets.o(.data) for .data
    libwebsockets.o(.text) refers to libwebsockets.o(.constdata) for .constdata
    libwebsockets.o(.text) refers to strlen.o(.text) for strlen
    libwebsockets.o(.text) refers to strncmp.o(.text) for strncmp
    libwebsockets.o(.text) refers to strchr.o(.text) for strchr
    libwebsockets.o(.text) refers to strncpy.o(.text) for strncpy
    libwebsockets.o(.text) refers to base64-decode.o(.text) for lws_b64_encode_string
    libwebsockets.o(.text) refers to atoi.o(.text) for atoi
    libwebsockets.o(.text) refers to printfa.o(i.__0vsnprintf) for vsnprintf
    libwebsockets.o(.text) refers to localtime_r.o(.text) for localtime_r
    libwebsockets.o(.text) refers to uldiv.o(.text) for __aeabi_uldivmod
    libwebsockets.o(.text) refers to printfa.o(i.__0printf) for __2printf
    libwebsockets.o(.text) refers to memseta.o(.text) for __aeabi_memclr4
    libwebsockets.o(.text) refers to strcmp.o(.text) for strcmp
    libwebsockets.o(.text) refers to errno.o(i.__aeabi_errno_addr) for __aeabi_errno_addr
    libwebsockets.o(.constdata) refers to libwebsockets.o(.conststring) for .conststring
    libwebsockets.o(.data) refers to libwebsockets.o(.text) for lwsl_emit_stderr
    libwebsockets.o(.data) refers to libwebsockets.o(.conststring) for .conststring
    lws-plat-wm.o(.text) refers to lwip2.0.3.o(.text) for select
    lws-plat-wm.o(.text) refers to wm_rtos.o(.text) for tls_os_get_time
    lws-plat-wm.o(.text) refers to memseta.o(.text) for __aeabi_memclr4
    lws-plat-wm.o(.text) refers to service.o(.text) for lws_service_adjust_timeout
    lws-plat-wm.o(.text) refers to errno.o(i.__aeabi_errno_addr) for __aeabi_errno_addr
    lws-plat-wm.o(.text) refers to wm_common.o(.text) for mem_free_debug
    lws-plat-wm.o(.text) refers to random.o(.text) for random_get_bytes
    lws-plat-wm.o(.text) refers to libwebsockets.o(.text) for _lws_log
    lws-plat-wm.o(.text) refers to wm_rtos.o(.constdata) for HZ
    output.o(.text) refers to lwip2.0.3.o(.text) for send
    output.o(.text) refers to errno.o(i.__aeabi_errno_addr) for __aeabi_errno_addr
    output.o(.text) refers to libwebsockets.o(.text) for lws_get_context
    output.o(.text) refers to strncpy.o(.text) for strncpy
    output.o(.text) refers to pollfd.o(.text) for lws_callback_on_writable
    output.o(.text) refers to lws-plat-wm.o(.text) for lws_free
    output.o(.text) refers to memmove.o(.text) for __aeabi_memcpy
    output.o(.text) refers to output.o(.constdata) for .constdata
    parsers.o(.text) refers to memseta.o(.text) for __aeabi_memclr4
    parsers.o(.text) refers to memmove.o(.text) for __aeabi_memcpy
    parsers.o(.text) refers to lws-plat-wm.o(.text) for lws_free
    parsers.o(.text) refers to libwebsockets.o(.text) for _lws_log
    parsers.o(.text) refers to service.o(.text) for lws_service_fd_tsi
    parsers.o(.text) refers to pollfd.o(.text) for _lws_change_pollfd
    parsers.o(.text) refers to wm_rtos.o(.text) for tls_os_get_time
    parsers.o(.text) refers to client-handshake.o(.text) for lws_client_connect_via_info2
    parsers.o(.text) refers to strcpy.o(.text) for strcpy
    parsers.o(.text) refers to parsers.o(.constdata) for .constdata
    parsers.o(.text) refers to wm_rtos.o(.constdata) for HZ
    parsers.o(.text) refers to header.o(.text) for lws_return_http_status
    parsers.o(.text) refers to atoi.o(.text) for atoi
    pollfd.o(.text) refers to lws-plat-wm.o(.text) for lws_plat_change_pollfd
    pollfd.o(.text) refers to libwebsockets.o(.text) for _lws_log
    pollfd.o(.text) refers to strcmp.o(.text) for strcmp
    pollfd.o(.text) refers to pollfd.o(.constdata) for .constdata
    service.o(.text) refers to output.o(.text) for lws_issue_raw
    service.o(.text) refers to libwebsockets.o(.text) for lws_set_timeout
    service.o(.text) refers to pollfd.o(.text) for lws_change_pollfd
    service.o(.text) refers to lws-plat-wm.o(.text) for lws_malloc
    service.o(.text) refers to memmove.o(.text) for __aeabi_memcpy
    service.o(.text) refers to parsers.o(.text) for char_to_hex
    service.o(.text) refers to client.o(.text) for lws_http_transaction_completed_client
    service.o(.text) refers to context.o(.text) for lws_protocol_init
    service.o(.text) refers to wm_rtos.o(.text) for tls_os_get_time
    service.o(.text) refers to service.o(.constdata) for .constdata
    service.o(.text) refers to wm_rtos.o(.constdata) for HZ
    service.o(.text) refers to client-parser.o(.text) for lws_client_rx_sm
    service.o(.text) refers to handshake.o(.text) for lws_read
    async.o(.text) refers to net.o(.text) for coap_transaction_id
    async.o(.text) refers to debug.o(.text) for coap_log_impl
    async.o(.text) refers to mem_libcoap.o(.text) for coap_malloc_type
    async.o(.text) refers to memseta.o(.text) for __aeabi_memclr4
    async.o(.text) refers to memmove.o(.text) for __aeabi_memcpy4
    async.o(.text) refers to wm_rtos.o(.text) for tls_os_get_time
    block.o(.text) refers to option.o(.text) for coap_opt_length
    block.o(.text) refers to encode.o(.text) for coap_decode_var_bytes
    block.o(.text) refers to debug.o(.text) for coap_log_impl
    block.o(.text) refers to pdu.o(.text) for coap_add_option
    debug.o(.text) refers to memmove.o(.text) for __aeabi_memcpy4
    debug.o(.text) refers to ctype_o.o(.text) for __rt_ctype_table
    debug.o(.text) refers to printfa.o(i.__0snprintf) for __2snprintf
    debug.o(.text) refers to printfa.o(i.__0printf) for __2printf
    debug.o(.text) refers to option.o(.text) for coap_option_iterator_init
    debug.o(.text) refers to encode.o(.text) for coap_decode_var_bytes
    debug.o(.text) refers to block.o(.text) for coap_opt_block_num
    debug.o(.text) refers to pdu.o(.text) for coap_get_data
    debug.o(.text) refers to wm_rtos.o(.text) for tls_os_get_time
    debug.o(.text) refers to printfa.o(i.__0vprintf) for vprintf
    debug.o(.text) refers to debug.o(.data) for .data
    debug.o(.data) refers to debug.o(.conststring) for .conststring
    option.o(.text) refers to encode.o(.text) for coap_fls
    option.o(.text) refers to debug.o(.text) for coap_log_impl
    option.o(.text) refers to memseta.o(.text) for __aeabi_memclr4
    option.o(.text) refers to memmove.o(.text) for __aeabi_memcpy
    pdu.o(.text) refers to memseta.o(.text) for __aeabi_memclr4
    pdu.o(.text) refers to mem_libcoap.o(.text) for coap_malloc_type
    pdu.o(.text) refers to lwip2.0.3.o(.text) for pbuf_free
    pdu.o(.text) refers to debug.o(.text) for coap_log_impl
    pdu.o(.text) refers to memmove.o(.text) for __aeabi_memcpy
    pdu.o(.text) refers to option.o(.text) for coap_opt_encode
    pdu.o(.text) refers to pdu.o(.data) for .data
    pdu.o(.data) refers to pdu.o(.conststring) for .conststring
    resource.o(.text) refers to memchr.o(.text) for memchr
    resource.o(.text) refers to memcmp.o(.text) for memcmp
    resource.o(.text) refers to option.o(.text) for coap_opt_value
    resource.o(.text) refers to wm_common.o(.text) for mem_alloc_debug
    resource.o(.text) refers to memseta.o(.text) for __aeabi_memclr4
    resource.o(.text) refers to uri_libcoap.o(.text) for coap_hash_path
    resource.o(.text) refers to debug.o(.text) for coap_log_impl
    resource.o(.text) refers to hashkey.o(.text) for coap_hash_impl
    resource.o(.text) refers to mem_libcoap.o(.text) for coap_free_type
    resource.o(.text) refers to subscribe.o(.text) for coap_subscription_init
    resource.o(.text) refers to memmove.o(.text) for __aeabi_memcpy4
    resource.o(.text) refers to resource.o(.constdata) for .constdata
    resource.o(.text) refers to pdu.o(.text) for coap_pdu_init
    resource.o(.text) refers to net.o(.text) for coap_send
    resource.o(.constdata) refers to resource.o(.conststring) for .conststring
    str.o(.text) refers to mem_libcoap.o(.text) for coap_malloc_type
    str.o(.text) refers to debug.o(.text) for coap_log_impl
    subscribe.o(.text) refers to memseta.o(.text) for __aeabi_memclr4
    uri_libcoap.o(.text) refers to memseta.o(.text) for __aeabi_memclr4
    uri_libcoap.o(.text) refers to ctype_o.o(.text) for __rt_ctype_table
    uri_libcoap.o(.text) refers to option.o(.text) for coap_opt_setheader
    uri_libcoap.o(.text) refers to debug.o(.text) for coap_log_impl
    uri_libcoap.o(.text) refers to mem_libcoap.o(.text) for coap_malloc_type
    uri_libcoap.o(.text) refers to memmove.o(.text) for __aeabi_memcpy
    uri_libcoap.o(.text) refers to hashkey.o(.text) for coap_hash_impl
    mem_libcoap.o(.text) refers to wm_common.o(.text) for mem_alloc_debug
    coap_io_lwip.o(.text) refers to printfa.o(i.__0printf) for __2printf
    coap_io_lwip.o(.text) refers to lwip2.0.3.o(.text) for pbuf_free
    coap_io_lwip.o(.text) refers to mem_libcoap.o(.text) for coap_free_type
    coap_io_lwip.o(.text) refers to net.o(.text) for coap_handle_message
    coap_io_lwip.o(.text) refers to lwip2.0.3.o(.bss) for ip_data
    net.o(.text) refers to rand.o(.text) for rand
    net.o(.text) refers to memmove.o(.text) for __aeabi_memcpy
    net.o(.text) refers to pdu.o(.text) for coap_delete_pdu
    net.o(.text) refers to mem_libcoap.o(.text) for coap_free_type
    net.o(.text) refers to memseta.o(.text) for __aeabi_memclr4
    net.o(.text) refers to debug.o(.text) for coap_log_impl
    net.o(.text) refers to coap_io_lwip.o(.text) for coap_new_endpoint
    net.o(.text) refers to hashkey.o(.text) for coap_hash_impl
    net.o(.text) refers to lwip2.0.3.o(.text) for pbuf_realloc
    net.o(.text) refers to resource.o(.text) for coap_handle_failed_notify
    net.o(.text) refers to wm_rtos.o(.text) for tls_os_get_time
    net.o(.text) refers to printfa.o(i.__0printf) for __2printf
    net.o(.text) refers to option.o(.text) for coap_option_iterator_init
    net.o(.text) refers to strlen.o(.text) for strlen
    net.o(.text) refers to encode.o(.text) for coap_decode_var_bytes
    net.o(.text) refers to block.o(.text) for coap_get_block
    net.o(.text) refers to wm_rtos.o(.constdata) for HZ
    net.o(.text) refers to memcmp.o(.text) for memcmp
    cjson.o(.text) refers to tolower.o(.text) for tolower
    cjson.o(.text) refers to wm_common.o(.text) for mem_free_debug
    cjson.o(.text) refers to dflti.o(.text) for __aeabi_i2d
    cjson.o(.text) refers to dmul.o(.text) for __aeabi_dmul
    cjson.o(.text) refers to dadd.o(.text) for __aeabi_dadd
    cjson.o(.text) refers to pow.o(i.pow) for pow
    cjson.o(.text) refers to dfixi.o(.text) for __aeabi_d2iz
    cjson.o(.text) refers to cdcmple.o(.text) for __aeabi_cdcmple
    cjson.o(.text) refers to cdrcmple.o(.text) for __aeabi_cdrcmple
    cjson.o(.text) refers to printfa.o(i.__0sprintf) for __2sprintf
    cjson.o(.text) refers to floor.o(i.floor) for floor
    cjson.o(.text) refers to cjson.o(.data) for .data
    cjson.o(.text) refers to strchr.o(.text) for strchr
    cjson.o(.text) refers to strncmp.o(.text) for strncmp
    cjson.o(.text) refers to memseta.o(.text) for __aeabi_memclr4
    cjson.o(.text) refers to strlen.o(.text) for strlen
    cjson.o(.text) refers to cjson.o(.constdata) for .constdata
    cjson.o(.text) refers to strcpy.o(.text) for strcpy
    cjson.o(.text) refers to memmove.o(.text) for __aeabi_memcpy4
    cjson.o(.text) refers to f2d.o(.text) for __aeabi_f2d
    wm_http_compile.o(.text) refers to strcpy.o(.text) for strcpy
    wm_http_compile.o(.text) refers to wm_common.o(.text) for mem_alloc_debug
    wm_http_compile.o(.text) refers to memseta.o(.text) for __aeabi_memclr4
    wm_http_compile.o(.text) refers to wm_rtos.o(.text) for tls_os_get_time
    wm_http_compile.o(.text) refers to lwip2.0.3.o(.text) for shutdown
    wm_http_compile.o(.text) refers to memmove.o(.text) for __aeabi_memcpy
    wm_http_compile.o(.text) refers to strlen.o(.text) for strlen
    wm_http_compile.o(.text) refers to errno.o(i.__aeabi_errno_addr) for __aeabi_errno_addr
    wm_http_compile.o(.text) refers to toupper.o(.text) for toupper
    wm_http_compile.o(.text) refers to strchr.o(.text) for strchr
    wm_http_compile.o(.text) refers to tolower.o(.text) for tolower
    wm_http_compile.o(.text) refers to wm_http_compile.o(.constdata) for .constdata
    wm_http_compile.o(.text) refers to strcat.o(.text) for strcat
    wm_http_compile.o(.text) refers to strstr.o(.text) for strstr
    wm_http_compile.o(.text) refers to atol.o(.text) for atol
    wm_http_compile.o(.text) refers to strncpy.o(.text) for strncpy
    wm_http_compile.o(.text) refers to wm_rtos.o(.constdata) for HZ
    wm_http_compile.o(.text) refers to ctype_o.o(.text) for __rt_ctype_table
    wm_http_compile.o(.text) refers to rand.o(.text) for srand
    wm_http_compile.o(.text) refers to dflti.o(.text) for __aeabi_i2d
    wm_http_compile.o(.text) refers to dscalb.o(.text) for scalbn
    wm_http_compile.o(.text) refers to dfixi.o(.text) for __aeabi_d2iz
    wm_http_compile.o(.text) refers to printfa.o(i.__0printf) for __2printf
    wm_http_compile.o(.text) refers to wm_cmd.o(.data) for pSession_flag
    wm_http_compile.o(.text) refers to wm_http_compile.o(.data) for .data
    wm_http_compile.o(.text) refers to memcmp.o(.text) for memcmp
    wm_http_compile.o(.text) refers to wm_http_compile.o(.bss) for .bss
    libemqtt.o(.text) refers to memmove.o(.text) for __aeabi_memcpy
    libemqtt.o(.text) refers to memseta.o(.text) for __aeabi_memclr4
    libemqtt.o(.text) refers to strncpy.o(.text) for strncpy
    libemqtt.o(.text) refers to strcpy.o(.text) for strcpy
    libemqtt.o(.text) refers to strlen.o(.text) for strlen
    libemqtt.o(.text) refers to wm_common.o(.text) for mem_alloc_debug
    libemqtt.o(.text) refers to mallocr.o(i.__malloc$realloc) for malloc
    libemqtt.o(.text) refers to mallocr.o(i.__free$realloc) for free
    ping.o(.text) refers to printfa.o(i.__0printf) for __2printf
    ping.o(.text) refers to lwip2.0.3.o(.text) for ip4addr_ntoa
    ping.o(.text) refers to memmove.o(.text) for __aeabi_memcpy
    ping.o(.text) refers to dfltui.o(.text) for __aeabi_ui2d
    ping.o(.text) refers to ddiv.o(.text) for __aeabi_ddiv
    ping.o(.text) refers to dmul.o(.text) for __aeabi_dmul
    ping.o(.text) refers to wm_rtos.o(.text) for tls_os_queue_receive
    ping.o(.text) refers to memseta.o(.text) for __aeabi_memclr4
    ping.o(.text) refers to wm_rtos.o(.constdata) for HZ
    ping.o(.text) refers to ping.o(.data) for .data
    ping.o(.text) refers to ping.o(.bss) for .bss
    wm_matrixssl_compile.o(.text) refers to memseta.o(.text) for __aeabi_memclr4
    wm_matrixssl_compile.o(.text) refers to rc4.o(.text) for Arc4Init
    wm_matrixssl_compile.o(.text) refers to aesMatrix.o(.text) for psAesInit
    wm_matrixssl_compile.o(.text) refers to memmove.o(.text) for __aeabi_memcpy
    wm_matrixssl_compile.o(.text) refers to wm_common.o(.text) for tls_crypto_sha1_init
    wm_matrixssl_compile.o(.text) refers to memcmp.o(.text) for memcmp
    wm_matrixssl_compile.o(.text) refers to wm_matrixssl_compile.o(.constdata) for .constdata
    wm_matrixssl_compile.o(.text) refers to printfa.o(i.__0printf) for __2printf
    wm_matrixssl_compile.o(.text) refers to sha256.o(.text) for wpa_sha256_init
    wm_matrixssl_compile.o(.text) refers to wm_matrixssl_compile.o(.data) for .data
    wm_matrixssl_compile.o(.text) refers to wm_matrixssl_compile.o(.bss) for .bss
    wm_matrixssl_compile.o(.text) refers to strncpy.o(.text) for strncpy
    wm_matrixssl_compile.o(.text) refers to strncmp.o(.text) for strncmp
    wm_matrixssl_compile.o(.text) refers to wm_rtos.o(.text) for tls_os_get_time
    wm_matrixssl_compile.o(.text) refers to wm_rtos.o(.constdata) for HZ
    wm_matrixssl_compile.o(.text) refers to strcasecmp.o(.text) for strcasecmp
    wm_matrixssl_compile.o(.text) refers to strchr.o(.text) for strchr
    wm_matrixssl_compile.o(.text) refers to printfa.o(i.__0snprintf) for __2snprintf
    wm_matrixssl_compile.o(.text) refers to strcmp.o(.text) for strcmp
    wm_matrixssl_compile.o(.text) refers to strlen.o(.text) for strlen
    wm_matrixssl_compile.o(.text) refers to strcpy.o(.text) for strcpy
    wm_matrixssl_compile.o(.text) refers to sha1_internal.o(.text) for SHA1Transform
    wm_matrixssl_compile.o(.text) refers to libtommath.o(.text) for mp_cmp
    wm_matrixssl_compile.o(.data) refers to wm_matrixssl_compile.o(.text) for csAesInit
    wm_matrixssl_compile.o(.data) refers to wm_matrixssl_compile.o(.conststring) for .conststring
    iperf_api.o(.text) refers to _scanf_longlong.o(.text) for _scanf_longlong
    iperf_api.o(.text) refers to _scanf_int.o(.text) for _scanf_int
    iperf_api.o(.text) refers to scanf_fp.o(.text) for _scanf_real
    iperf_api.o(.text) refers to printfa.o(i.__0printf) for printf
    iperf_api.o(.text) refers to strlen.o(.text) for strlen
    iperf_api.o(.text) refers to wm_common.o(.text) for mem_alloc_debug
    iperf_api.o(.text) refers to strncpy.o(.text) for strncpy
    iperf_api.o(.text) refers to errno.o(i.__aeabi_errno_addr) for __aeabi_errno_addr
    iperf_api.o(.text) refers to printfa.o(i.__0sprintf) for __2sprintf
    iperf_api.o(.text) refers to strcpy.o(.text) for strcpy
    iperf_api.o(.text) refers to lwip2.0.3.o(.text) for lwip_htons
    iperf_api.o(.text) refers to iperf_timer.o(.text) for free_timer
    iperf_api.o(.text) refers to iperf_locale.o(.constdata) for usage_long1
    iperf_api.o(.text) refers to iperf_locale.o(.constdata) for usage_long2
    iperf_api.o(.text) refers to iperf_error.o(.data) for i_errno
    iperf_api.o(.text) refers to iperf_locale.o(.constdata) for usage_short
    iperf_api.o(.text) refers to iperf_api.o(.constdata) for .constdata
    iperf_api.o(.text) refers to iperf_locale.o(.constdata) for test_start_bytes
    iperf_api.o(.text) refers to iperf_locale.o(.constdata) for test_start_time
    iperf_api.o(.text) refers to memmove.o(.text) for __aeabi_memcpy4
    iperf_api.o(.text) refers to dflti.o(.text) for __aeabi_i2d
    iperf_api.o(.text) refers to dscalb.o(.text) for scalbn
    iperf_api.o(.text) refers to dadd.o(.text) for __aeabi_dadd
    iperf_api.o(.text) refers to cdcmple.o(.text) for __aeabi_cdcmple
    iperf_api.o(.text) refers to memseta.o(.text) for __aeabi_memclr
    iperf_api.o(.text) refers to strncat.o(.text) for strncat
    iperf_api.o(.text) refers to printfa.o(i.__0snprintf) for __2snprintf
    iperf_api.o(.text) refers to iperf_net.o(.text) for Nwrite
    iperf_api.o(.text) refers to strcmp.o(.text) for strcmp
    iperf_api.o(.text) refers to strchr.o(.text) for strchr
    iperf_api.o(.text) refers to strtok.o(.text) for strtok
    iperf_api.o(.text) refers to atoi.o(.text) for atoi
    iperf_api.o(.text) refers to atoll.o(.text) for atoll
    iperf_api.o(.text) refers to iperf_api.o(.bss) for .bss
    iperf_api.o(.text) refers to iperf_api.o(.data) for .data
    iperf_api.o(.text) refers to atof.o(i.atof) for atof
    iperf_api.o(.text) refers to __0sscanf.o(.text) for __0sscanf
    iperf_api.o(.text) refers to dfltul.o(.text) for __aeabi_ul2d
    iperf_api.o(.text) refers to ddiv.o(.text) for __aeabi_ddiv
    iperf_api.o(.text) refers to f2d.o(.text) for __aeabi_f2d
    iperf_api.o(.text) refers to fadd.o(.text) for __aeabi_fadd
    iperf_api.o(.text) refers to iperf_units.o(.text) for unit_snprintf
    iperf_api.o(.text) refers to uldiv.o(.text) for __aeabi_uldivmod
    iperf_api.o(.text) refers to fmul.o(.text) for __aeabi_fmul
    iperf_api.o(.text) refers to fflti.o(.text) for __aeabi_i2f
    iperf_api.o(.text) refers to fdiv.o(.text) for __aeabi_fdiv
    iperf_api.o(.text) refers to tcp_info.o(.text) for print_tcpinfo
    iperf_api.o(.text) refers to iperf_locale.o(.constdata) for report_bw_jitter_loss_header
    iperf_api.o(.text) refers to iperf_locale.o(.constdata) for report_bw_header
    iperf_api.o(.text) refers to iperf_locale.o(.constdata) for report_bw_jitter_loss_format
    iperf_api.o(.text) refers to iperf_locale.o(.constdata) for report_bw_format
    iperf_api.o(.text) refers to iperf_locale.o(.constdata) for report_datagrams
    iperf_api.o(.text) refers to iperf_locale.o(.constdata) for report_sum_outoforder
    iperf_api.o(.text) refers to iperf_locale.o(.constdata) for report_sum_bw_jitter_loss_format
    iperf_api.o(.text) refers to iperf_locale.o(.constdata) for report_sum_bw_format
    iperf_api.o(.text) refers to iperf_tcp.o(.text) for iperf_tcp_accept
    iperf_api.o(.text) refers to iperf_udp.o(.text) for iperf_udp_accept
    iperf_client_api.o(.text) refers to iperf_api.o(.text) for iperf_new_stream
    iperf_client_api.o(.text) refers to lwip2.0.3.o(.text) for closesocket
    iperf_client_api.o(.text) refers to iperf_net.o(.text) for Nwrite
    iperf_client_api.o(.text) refers to errno.o(i.__aeabi_errno_addr) for __aeabi_errno_addr
    iperf_client_api.o(.text) refers to iperf_util.o(.text) for make_cookie
    iperf_client_api.o(.text) refers to wm_common.o(.text) for mem_alloc_debug
    iperf_client_api.o(.text) refers to printfa.o(i.__0printf) for __2printf
    iperf_client_api.o(.text) refers to iperf_timer.o(.text) for cpu_util
    iperf_client_api.o(.text) refers to uldiv.o(.text) for __aeabi_uldivmod
    iperf_client_api.o(.text) refers to iperf_error.o(.data) for i_errno
    iperf_error.o(.text) refers to memseta.o(.text) for __aeabi_memclr
    iperf_error.o(.text) refers to printfa.o(i.__0snprintf) for __2snprintf
    iperf_error.o(.text) refers to strncat.o(.text) for strncat
    iperf_error.o(.text) refers to iperf_error.o(.bss) for .bss
    iperf_error.o(.text) refers to lwip2.0.3.o(.data) for h_errno
    iperf_error.o(.text) refers to errno.o(i.__aeabi_errno_addr) for __aeabi_errno_addr
    iperf_error.o(.text) refers to strerror.o(.text) for strerror
    iperf_error.o(.text) refers to printfa.o(i.__0printf) for __2printf
    iperf_error.o(.text) refers to iperf_error.o(.data) for .data
    iperf_main.o(.text) refers to iperf_api.o(.text) for usage
    iperf_main.o(.text) refers to iperf_server_api.o(.text) for iperf_run_server
    iperf_main.o(.text) refers to iperf_error.o(.text) for iperf_error
    iperf_main.o(.text) refers to iperf_client_api.o(.text) for iperf_run_client
    iperf_main.o(.text) refers to printfa.o(i.__0printf) for __2printf
    iperf_net.o(.text) refers to lwip2.0.3.o(.text) for socket
    iperf_net.o(.text) refers to memseta.o(.text) for __aeabi_memclr4
    iperf_net.o(.text) refers to printfa.o(i.__0printf) for __2printf
    iperf_net.o(.text) refers to errno.o(i.__aeabi_errno_addr) for __aeabi_errno_addr
    iperf_net.o(.text) refers to printfa.o(i.__0snprintf) for __2snprintf
    iperf_net.o(.text) refers to wm_rtos.o(.text) for tls_os_time_delay
    iperf_server_api.o(.text) refers to iperf_net.o(.text) for netannounce
    iperf_server_api.o(.text) refers to printfa.o(i.__0printf) for __2printf
    iperf_server_api.o(.text) refers to lwip2.0.3.o(.text) for accept
    iperf_server_api.o(.text) refers to iperf_api.o(.text) for iperf_exchange_parameters
    iperf_server_api.o(.text) refers to iperf_timer.o(.text) for cpu_util
    iperf_server_api.o(.text) refers to memseta.o(.text) for __aeabi_memclr4
    iperf_server_api.o(.text) refers to iperf_error.o(.data) for i_errno
    iperf_server_api.o(.text) refers to errno.o(i.__aeabi_errno_addr) for __aeabi_errno_addr
    iperf_server_api.o(.text) refers to iperf_util.o(.text) for is_closed
    iperf_tcp.o(.text) refers to iperf_net.o(.text) for Nread
    iperf_tcp.o(.text) refers to lwip2.0.3.o(.text) for accept
    iperf_tcp.o(.text) refers to strcmp.o(.text) for strcmp
    iperf_tcp.o(.text) refers to printfa.o(i.__0snprintf) for __2snprintf
    iperf_tcp.o(.text) refers to memseta.o(.text) for __aeabi_memclr4
    iperf_tcp.o(.text) refers to errno.o(i.__aeabi_errno_addr) for __aeabi_errno_addr
    iperf_tcp.o(.text) refers to iperf_error.o(.data) for i_errno
    iperf_timer.o(.text) refers to wm_rtos.o(.text) for tls_os_get_time
    iperf_timer.o(.text) refers to dflti.o(.text) for __aeabi_i2d
    iperf_timer.o(.text) refers to ddiv.o(.text) for __aeabi_ddiv
    iperf_timer.o(.text) refers to dadd.o(.text) for __aeabi_dadd
    iperf_timer.o(.text) refers to cdcmple.o(.text) for __aeabi_cdcmple
    iperf_timer.o(.text) refers to wm_common.o(.text) for mem_calloc_debug
    iperf_timer.o(.text) refers to lwip2.0.3.o(.text) for select
    iperf_timer.o(.text) refers to wm_rtos.o(.constdata) for HZ
    iperf_timer.o(.text) refers to iperf_error.o(.data) for i_errno
    iperf_udp.o(.text) refers to iperf_net.o(.text) for Nread
    iperf_udp.o(.text) refers to lwip2.0.3.o(.text) for lwip_htonl
    iperf_udp.o(.text) refers to printfa.o(i.__0printf) for __2printf
    iperf_udp.o(.text) refers to iperf_timer.o(.text) for iperf_gettimeofday
    iperf_udp.o(.text) refers to dflti.o(.text) for __aeabi_i2d
    iperf_udp.o(.text) refers to dadd.o(.text) for __aeabi_dsub
    iperf_udp.o(.text) refers to dfixi.o(.text) for __aeabi_d2iz
    iperf_udp.o(.text) refers to fflti.o(.text) for __aeabi_i2f
    iperf_udp.o(.text) refers to fadd.o(.text) for __aeabi_fsub
    iperf_udp.o(.text) refers to fscalb.o(.text) for scalbnf
    iperf_udp.o(.text) refers to uldiv.o(.text) for __aeabi_uldivmod
    iperf_udp.o(.text) refers to ldiv.o(.text) for __aeabi_ldivmod
    iperf_udp.o(.text) refers to iperf_udp.o(.constdata) for .constdata
    iperf_udp.o(.text) refers to iperf_error.o(.data) for i_errno
    iperf_units.o(.text) refers to _scanf_int.o(.text) for _scanf_int
    iperf_units.o(.text) refers to _scanf_str.o(.text) for _scanf_string
    iperf_units.o(.text) refers to __0sscanf.o(.text) for __0sscanf
    iperf_units.o(.text) refers to ctype_o.o(.text) for __rt_ctype_table
    iperf_units.o(.text) refers to dscalb.o(.text) for scalbn
    iperf_units.o(.text) refers to toupper.o(.text) for toupper
    iperf_units.o(.text) refers to dfixul.o(.text) for __aeabi_d2ulz
    iperf_units.o(.text) refers to uldiv.o(.text) for __aeabi_uldivmod
    iperf_units.o(.text) refers to f2d.o(.text) for __aeabi_f2d
    iperf_units.o(.text) refers to ddiv.o(.text) for __aeabi_ddiv
    iperf_units.o(.text) refers to cdcmple.o(.text) for __aeabi_cdcmple
    iperf_units.o(.text) refers to printfa.o(i.__0snprintf) for __2snprintf
    iperf_units.o(.text) refers to cdrcmple.o(.text) for __aeabi_cdrcmple
    iperf_units.o(.text) refers to dmul.o(.text) for __aeabi_dmul
    iperf_units.o(.text) refers to iperf_units.o(.constdata) for .constdata
    iperf_units.o(.text) refers to iperf_units.o(.data) for .data
    iperf_units.o(.data) refers to iperf_units.o(.conststring) for .conststring
    iperf_util.o(.text) refers to iperf_timer.o(.text) for iperf_gettimeofday
    iperf_util.o(.text) refers to printfa.o(i.__0snprintf) for __2snprintf
    iperf_util.o(.text) refers to memmove.o(.text) for __aeabi_memcpy
    iperf_util.o(.text) refers to lwip2.0.3.o(.text) for select
    iperf_util.o(.text) refers to errno.o(i.__aeabi_errno_addr) for __aeabi_errno_addr
    tcp_window_size.o(.text) refers to lwip2.0.3.o(.text) for setsockopt
    asn1parse.o(.text) refers to libtommath.o(.text) for mp_read_unsigned_bin
    asn1parse.o(.text) refers to wm_common.o(.text) for mem_alloc_debug
    base64.o(.text) refers to base64.o(.constdata) for .constdata
    cipher.o(.text) refers to memseta.o(.text) for __aeabi_memclr4
    cipher.o(.text) refers to memmove.o(.text) for __aeabi_memcpy
    cipher.o(.text) refers to cipher.o(.constdata) for .constdata
    pem.o(.text) refers to strstr.o(.text) for strstr
    pem.o(.text) refers to strlen.o(.text) for strlen
    pem.o(.text) refers to memcmp.o(.text) for memcmp
    pem.o(.text) refers to base64.o(.text) for base64_decode
    pem.o(.text) refers to wm_common.o(.text) for mem_alloc_debug
    rsa.o(.text) refers to memseta.o(.text) for __aeabi_memset
    rsa.o(.text) refers to memmove.o(.text) for __aeabi_memcpy
    rsa.o(.text) refers to wm_common.o(.text) for psRsaEncryptPriv
    rsa.o(.text) refers to memcmp.o(.text) for memcmp
    ssl_cli.o(.text) refers to wm_rtos.o(.text) for tls_os_get_time
    ssl_cli.o(.text) refers to memmove.o(.text) for __aeabi_memcpy
    ssl_cli.o(.text) refers to ssl_tls.o(.text) for ssl_write_record
    ssl_cli.o(.text) refers to memcmp.o(.text) for memcmp
    ssl_cli.o(.text) refers to wm_common.o(.text) for psRsaEncryptPub
    ssl_cli.o(.text) refers to rsa.o(.text) for rsa_pkcs1_sign
    ssl_tls.o(.text) refers to strlen.o(.text) for strlen
    ssl_tls.o(.text) refers to memmove.o(.text) for __aeabi_memcpy
    ssl_tls.o(.text) refers to polarssl_md5.o(.text) for md5_hmac
    ssl_tls.o(.text) refers to polarssl_sha1.o(.text) for sha1_hmac
    ssl_tls.o(.text) refers to memseta.o(.text) for __aeabi_memclr4
    ssl_tls.o(.text) refers to arc4.o(.text) for arc4_setup
    ssl_tls.o(.text) refers to memcmp.o(.text) for memcmp
    ssl_tls.o(.text) refers to wm_common.o(.text) for mem_alloc_debug
    ssl_tls.o(.text) refers to x509parse.o(.text) for x509parse_crt
    ssl_tls.o(.text) refers to ssl_cli.o(.text) for ssl_handshake_client
    x509parse.o(.text) refers to _scanf_int.o(.text) for _scanf_int
    x509parse.o(.text) refers to asn1parse.o(.text) for asn1_get_tag
    x509parse.o(.text) refers to wm_common.o(.text) for mem_alloc_debug
    x509parse.o(.text) refers to memseta.o(.text) for __aeabi_memclr4
    x509parse.o(.text) refers to memmove.o(.text) for __aeabi_memcpy
    x509parse.o(.text) refers to __0sscanf.o(.text) for __0sscanf
    x509parse.o(.text) refers to memcmp.o(.text) for memcmp
    x509parse.o(.text) refers to libtommath.o(.text) for mp_count_bits
    x509parse.o(.text) refers to strstr.o(.text) for strstr
    x509parse.o(.text) refers to pem.o(.text) for pem_init
    x509parse.o(.text) refers to polarssl_md5.o(.text) for p_md5
    x509parse.o(.text) refers to polarssl_sha1.o(.text) for p_sha1
    x509parse.o(.text) refers to rsa.o(.text) for rsa_pkcs1_verify
    x509parse.o(.text) refers to strlen.o(.text) for strlen
    polarssl_md5.o(.text) refers to md5.o(.text) for MD5Init
    polarssl_sha1.o(.text) refers to sha1_internal.o(.text) for SHA1Init
    polarssl_sha1.o(.text) refers to sha1.o(.text) for hmac_sha1
    mdnsposix.o(.text) refers to mdns.o(.text) for mDNS_vsnprintf
    mdnsposix.o(.text) refers to printfa.o(i.__0printf) for __2printf
    mdnsposix.o(.text) refers to lwip2.0.3.o(.text) for sendto
    mdnsposix.o(.text) refers to memseta.o(.text) for __aeabi_memclr
    mdnsposix.o(.text) refers to errno.o(i.__aeabi_errno_addr) for __aeabi_errno_addr
    mdnsposix.o(.text) refers to wm_common.o(.text) for mem_alloc_debug
    mdnsposix.o(.text) refers to strcmp.o(.text) for strcmp
    mdnsposix.o(.text) refers to dflti.o(.text) for __aeabi_i2d
    mdnsposix.o(.text) refers to mdnsposix.o(.data) for .data
    mdnsposix.o(.text) refers to mdnsposix.o(.bss) for .bss
    mdnsposix.o(.text) refers to mdns.o(.constdata) for MulticastDNSPort
    mdnsposix.o(.text) refers to mdnsposix.o(.constdata) for .constdata
    mdnsposix.o(.text) refers to wpa_supplicant.o(.text) for wpa_supplicant_get_mac
    mdnsposix.o(.text) refers to printfa.o(i.__0snprintf) for __2snprintf
    mdnsposix.o(.text) refers to strcpy.o(.text) for strcpy
    mdnsposix.o(.text) refers to strlen.o(.text) for strlen
    mdnsposix.o(.text) refers to memmove.o(.text) for __aeabi_memcpy
    mdnsposix.o(.text) refers to memcmp.o(.text) for memcmp
    mdnsposix.o(.text) refers to wm_rtos.o(.text) for tls_os_get_time
    mdnsposix.o(.text) refers to wm_rtos.o(.constdata) for HZ
    mdns.o(.text) refers to wm_common.o(.text) for mem_alloc_debug
    mdns.o(.text) refers to memseta.o(.text) for __aeabi_memclr
    mdns.o(.text) refers to mdns.o(.bss) for .bss
    mdns.o(.text) refers to mdns.o(.constdata) for .constdata
    mdns.o(.text) refers to mdns.o(.data) for .data
    mdns.o(.text) refers to mdnsposix.o(.text) for mDNSPlatformTimeNow
    mdns.o(.text) refers to mdnsposix.o(.data) for mDNSPlatformOneSecond
    mdns.o(.text) refers to memmove.o(.text) for __aeabi_memcpy4
    wm_http_fwup.o(.text) refers to memseta.o(.text) for __aeabi_memclr4
    wm_http_fwup.o(.text) refers to wm_common.o(.text) for mem_alloc_debug
    wm_http_fwup.o(.text) refers to wm_http_compile.o(.text) for HTTPClientOpenRequest
    wm_http_fwup.o(.text) refers to printfa.o(i.__0sprintf) for __2sprintf
    wm_http_fwup.o(.text) refers to wm_rtos.o(.text) for tls_os_time_delay
    wm_http_fwup.o(.text) refers to strstr.o(.text) for strstr
    wm_http_fwup.o(.text) refers to atol.o(.text) for atol
    wm_http_fwup.o(.text) refers to printfa.o(i.__0printf) for __2printf
    wm_http_fwup.o(.text) refers to wm_socket_fwup.o(.text) for socket_fwup_accept
    wm_http_fwup.o(.text) refers to lwip2.0.3.o(.text) for pbuf_alloc
    wm_http_fwup.o(.text) refers to wm_rtos.o(.constdata) for HZ
    wm_socket_fwup.o(.text) refers to lwip2.0.3.o(.text) for pbuf_copy_partial
    wm_socket_fwup.o(.text) refers to wm_common.o(.text) for tls_fwup_request_sync
    wm_socket_fwup.o(.text) refers to memseta.o(.text) for __aeabi_memclr
    wm_socket_fwup.o(.text) refers to printfa.o(i.__0printf) for __2printf
    wm_socket_fwup.o(.text) refers to wm_socket_fwup.o(.data) for .data
    fs.o(.text) refers to strcmp.o(.text) for strcmp
    fs.o(.text) refers to memmove.o(.text) for __aeabi_memcpy
    fs.o(.text) refers to lwip2.0.3.o(.text) for mem_malloc
    fs.o(.text) refers to memseta.o(.text) for __aeabi_memclr
    fs.o(.text) refers to web.o(.text) for Web_parse_line
    fs.o(.text) refers to strcpy.o(.text) for strcpy
    fs.o(.text) refers to fs.o(.bss) for .bss
    fs.o(.text) refers to fs.o(.constdata) for .constdata
    fs.o(.constdata) refers to fs.o(.constdata) for data_404_html
    fs.o(.constdata) refers to fs.o(.constdata) for file_404_html
    fs.o(.constdata) refers to fs.o(.constdata) for data_hedbasic_html
    fs.o(.constdata) refers to fs.o(.constdata) for file_hedbasic_html
    fs.o(.constdata) refers to fs.o(.constdata) for data_hedfirmware_html
    fs.o(.constdata) refers to fs.o(.constdata) for file_hedfirmware_html
    fs.o(.constdata) refers to fs.o(.constdata) for data_index_html
    fs.o(.constdata) refers to fs.o(.constdata) for file_index_html
    fs.o(.constdata) refers to fs.o(.constdata) for data_jump_html
    fs.o(.constdata) refers to fs.o(.constdata) for file_jump_html
    fs.o(.constdata) refers to fs.o(.constdata) for data_style_css
    httpd.o(.text) refers to _scanf_str.o(.text) for _scanf_string
    httpd.o(.text) refers to _scanf_int.o(.text) for _scanf_int
    httpd.o(.text) refers to fs.o(.text) for fs_close
    httpd.o(.text) refers to lwip2.0.3.o(.text) for mem_free
    httpd.o(.text) refers to wm_wifi_oneshot.o(.text) for tls_oneshot_send_web_connect_msg
    httpd.o(.text) refers to memseta.o(.text) for __aeabi_memclr
    httpd.o(.text) refers to strlen.o(.text) for strlen
    httpd.o(.text) refers to printfa.o(i.__0sprintf) for __2sprintf
    httpd.o(.text) refers to wm_common.o(.text) for tls_fwup_request_sync
    httpd.o(.text) refers to wm_driver.o(.text) for tls_sys_reset
    httpd.o(.text) refers to strncmp.o(.text) for strncmp
    httpd.o(.text) refers to strstr.o(.text) for strstr
    httpd.o(.text) refers to strchr.o(.text) for strchr
    httpd.o(.text) refers to strcmp.o(.text) for strcmp
    httpd.o(.text) refers to web.o(.data) for gwebcfgmode
    httpd.o(.text) refers to lwip2.0.3.o(.data) for sndbuf_len
    httpd.o(.text) refers to httpd.o(.constdata) for .constdata
    httpd.o(.text) refers to httpd.o(.data) for .data
    httpd.o(.text) refers to strcpy.o(.text) for strcpy
    httpd.o(.text) refers to wm_rtos.o(.text) for tls_os_timer_change
    httpd.o(.text) refers to __0sscanf.o(.text) for __0sscanf
    httpd.o(.text) refers to memmove.o(.text) for __aeabi_memcpy
    httpd.o(.text) refers to printfa.o(i.__0printf) for __2printf
    httpd.o(.text) refers to wm_rtos.o(.constdata) for HZ
    httpd.o(.text) refers to web.o(.data) for Cgi
    httpd.o(.text) refers to lwip2.0.3.o(.constdata) for ip_addr_any
    httpd.o(.constdata) refers to httpd.o(.conststring) for .conststring
    web.o(.text) refers to memmove.o(.text) for __aeabi_memcpy
    web.o(.text) refers to strcmp.o(.text) for strcmp
    web.o(.text) refers to wm_common.o(.text) for tls_param_get
    web.o(.text) refers to wm_wifi_api.o(.text) for tls_wifi_scan_result_cb_register
    web.o(.text) refers to wm_rtos.o(.text) for tls_os_time_delay
    web.o(.text) refers to strcpy.o(.text) for strcpy
    web.o(.text) refers to printfa.o(i.__0sprintf) for __2sprintf
    web.o(.text) refers to strcat.o(.text) for strcat
    web.o(.text) refers to strlen.o(.text) for strlen
    web.o(.text) refers to memseta.o(.text) for __aeabi_memclr4
    web.o(.text) refers to web.o(.data) for .data
    web.o(.text) refers to web.o(.constdata) for .constdata
    web.o(.text) refers to wm_rtos.o(.constdata) for HZ
    web.o(.text) refers to wm_wifi_oneshot.o(.bss) for gucssidData
    web.o(.constdata) refers to web.o(.conststring) for .conststring
    web.o(.data) refers to web.o(.conststring) for .conststring
    web.o(.data) refers to web.o(.conststring) for .conststring
    web.o(.data) refers to web.o(.text) for do_cgi_config
    airkiss_log.o(.text) refers to airkiss_log.o(.constdata) for .constdata
    aesMatrix.o(.text) refers to memseta.o(.text) for __aeabi_memclr4
    aesMatrix.o(.text) refers to aesMatrix.o(.constdata) for .constdata
    ap.o(.text) refers to wm_common.o(.text) for mem_alloc_debug
    ap.o(.text) refers to memseta.o(.text) for __aeabi_memclr
    ap.o(.text) refers to memmove.o(.text) for __aeabi_memcpy
    ap.o(.text) refers to tls_wl_util.o(.text) for ieee80211_get_tim_ie
    ap.o(.text) refers to memcmp.o(.text) for memcmp
    ap.o(.text) refers to hostapd.o(.text) for hostapd_interface_deinit
    ap.o(.text) refers to wpa_driver.o(.text) for wpa_drv_deinit_ap
    ap.o(.text) refers to ieee802_11_common.o(.text) for get_hdr_bssid
    ap.o(.text) refers to ieee802_11.o(.text) for ieee802_11_mgmt
    ap.o(.text) refers to random.o(.text) for random_add_randomness
    ap.o(.text) refers to wm_rtos.o(.text) for tls_os_timer_start
    ap.o(.text) refers to hostapd_sta_info.o(.text) for ap_get_sta
    ap.o(.text) refers to ieee802_1x.o(.text) for ieee802_1x_receive
    ap.o(.text) refers to tkip_countermeasures.o(.text) for michael_mic_failure
    ap.o(.text) refers to tls_wl_if.o(.text) for tls_wl_if_send_channel_switch
    ap.o(.text) refers to tls_wl_core.o(.text) for tls_get_wif_data
    ap.o(.text) refers to ap.o(.constdata) for .constdata
    ap.o(.text) refers to wm_rtos.o(.constdata) for HZ
    ap.o(.text) refers to ap.o(.data) for .data
    ap.o(.text) refers to wpa_supplicant.o(.text) for supplicant_ps_pkt_timer_expire
    md5.o(.text) refers to wm_common.o(.text) for tls_crypto_md5_init
    md5.o(.text) refers to memmove.o(.text) for __aeabi_memcpy
    md5.o(.text) refers to memseta.o(.text) for __aeabi_memclr
    random.o(.text) refers to memmove.o(.text) for __aeabi_memcpy
    random.o(.text) refers to wm_rtos.o(.text) for tls_os_get_time
    random.o(.text) refers to sha1.o(.text) for hmac_sha1
    random.o(.text) refers to random.o(.data) for .data
    random.o(.text) refers to random.o(.bss) for .bss
    random.o(.text) refers to random.o(.constdata) for .constdata
    sha1.o(.text) refers to sha1_internal.o(.text) for sha1_vector
    sha1.o(.text) refers to memseta.o(.text) for __aeabi_memclr4
    sha1.o(.text) refers to memmove.o(.text) for __aeabi_memcpy
    sha1.o(.text) refers to strlen.o(.text) for strlen
    sha1_internal.o(.text) refers to wm_common.o(.text) for tls_crypto_sha1_init
    sha1_internal.o(.text) refers to memmove.o(.text) for __aeabi_memcpy
    sha1_internal.o(.text) refers to memseta.o(.text) for __aeabi_memclr4
    sha256.o(.text) refers to memmove.o(.text) for __aeabi_memcpy
    sha256.o(.text) refers to memseta.o(.text) for __aeabi_memclr4
    sha256.o(.text) refers to strlen.o(.text) for strlen
    sha256.o(.text) refers to sha256.o(.constdata) for .constdata
    wpa_supplicant.o(.text) refers to wm_rtos.o(.text) for tls_os_timer_stop
    wpa_supplicant.o(.text) refers to wm_common.o(.text) for mem_alloc_debug
    wpa_supplicant.o(.text) refers to memseta.o(.text) for __aeabi_memclr4
    wpa_supplicant.o(.text) refers to events.o(.text) for wpa_del_multi_bss
    wpa_supplicant.o(.text) refers to wpa_driver.o(.text) for wpa_drv_set_key
    wpa_supplicant.o(.text) refers to wpa.o(.text) for wpa_sm_set_config
    wpa_supplicant.o(.text) refers to tls_wl_if.o(.text) for tls_wl_if_sta_flush
    wpa_supplicant.o(.text) refers to wpabuf.o(.text) for wpabuf_free
    wpa_supplicant.o(.text) refers to wpa_supplicant.o(.data) for .data
    wpa_supplicant.o(.text) refers to wm_rtos.o(.constdata) for HZ
    wpa_supplicant.o(.text) refers to scan.o(.text) for wpa_supplicant_cancel_scan
    wpa_supplicant.o(.text) refers to tls_wl_hw.o(.text) for tls_wl_hw_sleep
    wpa_supplicant.o(.text) refers to bss.o(.text) for wpa_bss_get_vendor_ie
    wpa_supplicant.o(.text) refers to wpa_ie.o(.text) for wpa_parse_wpa_ie
    wpa_supplicant.o(.text) refers to sha1-pbkdf2.o(.text) for pbkdf2_sha1
    wpa_supplicant.o(.text) refers to tls_wl_util.o(.text) for ieee80211_channel_to_frequency
    wpa_supplicant.o(.text) refers to memmove.o(.text) for __aeabi_memcpy4
    wpa_supplicant.o(.text) refers to ap.o(.text) for hostapd_ps_pkt_timer_start
    wpa_supplicant.o(.text) refers to wm_wifi_api.o(.text) for wpa_update_encrypt_cfg
    wpa_supplicant.o(.text) refers to tls_wl_core.o(.text) for tls_wl_mem_reinit
    wpa_supplicant.o(.text) refers to wpas_glue.o(.text) for wpa_supplicant_init_wpa
    wpa_supplicant.o(.text) refers to wpa_supplicant.o(.bss) for .bss
    wpa_supplicant.o(.data) refers to wpa_supplicant.o(.text) for supplicant_event_assoc
    tls_wl_core.o(.text) refers to tls_wl_tx.o(.text) for tls_wl_litepoint_test
    tls_wl_core.o(.text) refers to wm_rtos.o(.text) for tls_os_sem_release
    tls_wl_core.o(.text) refers to memseta.o(.text) for __aeabi_memclr4
    tls_wl_core.o(.text) refers to wm_common.o(.text) for tls_param_get
    tls_wl_core.o(.text) refers to tls_wl_rc.o(.text) for rc_get_rate_table
    tls_wl_core.o(.text) refers to tls_wl_hw.o(.text) for tls_wl_hw_wake_up
    tls_wl_core.o(.text) refers to tls_wl_mlme.o(.text) for tls_wl_mlme_init
    tls_wl_core.o(.text) refers to tls_wl_core.o(.data) for .data
    tls_wl_core.o(.text) refers to tls_wl_hw.o(.data) for band_2GHz
    tls_wl_core.o(.text) refers to wm_rtos.o(.constdata) for HZ
    tls_wl_core.o(.text) refers to tls_wl_sta_info.o(.text) for sta_info_init
    tls_wl_core.o(.text) refers to tls_wl_bss.o(.text) for ieee80211_bss_list_init
    tls_wl_core.o(.text) refers to tls_wl_rx.o(.text) for tls_wl_rx_init
    tls_wl_core.o(.text) refers to wm_driver.o(.text) for tls_irq_enable
    tls_wl_core.o(.text) refers to wm_wifi_api.o(.text) for tls_wifi_get_listen_mode
    tls_wl_core.o(.text) refers to wpa_driver.o(.text) for wpa_drv_set_mode
    tls_wl_core.o(.text) refers to wpa_supplicant.o(.text) for supplicant_event_failed_softap
    tls_wl_core.o(.text) refers to tls_wl_core.o(.bss) for .bss
    tls_wl_core.o(.text) refers to tls_wl_scan.o(.text) for tls_wl_scan_task
    tls_wl_hw.o(.text) refers to wm_rtos.o(.text) for tls_os_sem_acquire
    tls_wl_hw.o(.text) refers to tls_wl_rf.o(.text) for wm_rf_reinit
    tls_wl_hw.o(.text) refers to tls_wl_core.o(.text) for tls_get_ieee80211_if_data
    tls_wl_hw.o(.text) refers to tls_wl_phy.o(.text) for tls_wl_bbp_init
    tls_wl_hw.o(.text) refers to tls_wl_rc.o(.text) for tls_wl_rc_init
    tls_wl_hw.o(.text) refers to tls_wl_hw.o(.data) for .data
    tls_wl_hw.o(.text) refers to tls_wl_core.o(.data) for SEC_TX_DESC_BASE_ADDR
    tls_wl_hw.o(.text) refers to tls_wl_util.o(.text) for ieee80211_beacon_get
    tls_wl_hw.o(.text) refers to wm_common.o(.text) for mem_free_debug
    tls_wl_hw.o(.text) refers to memmove.o(.text) for __aeabi_memcpy
    tls_wl_hw.o(.data) refers to tls_wl_hw.o(.data) for wl_channels
    tls_wl_hw.o(.data) refers to tls_wl_hw.o(.data) for wl_rates
    tls_wl_if.o(.text) refers to tls_wl_core.o(.text) for ieee80211_change_iface
    tls_wl_if.o(.text) refers to wm_rtos.o(.text) for tls_os_sem_acquire
    tls_wl_if.o(.text) refers to tls_wl_util.o(.text) for ieee80211_get_vendor_ie
    tls_wl_if.o(.text) refers to tls_wl_mgmt.o(.text) for ieee80211_bss_get_ie
    tls_wl_if.o(.text) refers to memseta.o(.text) for __aeabi_memclr4
    tls_wl_if.o(.text) refers to wpa_ie.o(.text) for wpa_parse_wpa_ie
    tls_wl_if.o(.text) refers to tls_wl_rc.o(.text) for tls_wl_rc_get_max_rate_code
    tls_wl_if.o(.text) refers to memmove.o(.text) for __aeabi_memcpy
    tls_wl_if.o(.text) refers to tls_wl_bss.o(.text) for ieee80211_bss_flush
    tls_wl_if.o(.text) refers to tls_wl_sta_info.o(.text) for sta_info_flush
    tls_wl_if.o(.text) refers to wm_common.o(.text) for mem_alloc_debug
    tls_wl_if.o(.text) refers to tls_wl_scan.o(.text) for alloc_scan_req
    tls_wl_if.o(.text) refers to tls_wl_mlme.o(.text) for ieee80211_sta_set_ssid
    tls_wl_if.o(.text) refers to tls_wl_key.o(.text) for ieee80211_del_key
    tls_wl_if.o(.text) refers to tls_wl_tx.o(.text) for tls_wl_if_tx
    tls_wl_if.o(.text) refers to tls_wl_hw.o(.text) for tls_wl_hw_set_key
    tls_wl_if.o(.text) refers to wm_rtos.o(.constdata) for HZ
    tls_wl_if.o(.text) refers to retarget.o(.text) for wm_printf
    tls_wl_if.o(.text) refers to tls_wl_if.o(.data) for .data
    tls_wl_if.o(.data) refers to tls_wl_if.o(.conststring) for .conststring
    tls_wl_rf.o(.text) refers to tls_wl_phy.o(.text) for tls_wl_delay
    tls_wl_rf.o(.text) refers to wm_rtos.o(.text) for tls_os_set_critical
    tls_wl_rf.o(.text) refers to wm_driver.o(.text) for tls_get_tx_lo
    tls_wl_rf.o(.text) refers to tx_lo_cal.o(.text) for rf_loleakage_cal
    tls_wl_rf.o(.text) refers to tls_wl_rf.o(.data) for .data
    tls_wl_rf.o(.text) refers to tls_wl_rf.o(.constdata) for .constdata
    tls_wl_rf.o(.text) refers to retarget.o(.text) for wm_printf
    tls_wl_rf.o(.text) refers to tls_rf_tx_iq.o(.text) for tx_iqmismatch
    tls_wl_tx.o(.text) refers to litepoint.o(.text) for tls_tx_send_litepoint
    tls_wl_tx.o(.text) refers to wm_common.o(.text) for mem_free_debug
    tls_wl_tx.o(.text) refers to memseta.o(.text) for __aeabi_memclr4
    tls_wl_tx.o(.text) refers to wm_rtos.o(.text) for tls_os_set_critical
    tls_wl_tx.o(.text) refers to tls_wl_rc.o(.text) for ieee80211_set_rate
    tls_wl_tx.o(.text) refers to litepoint.o(.data) for g_ltpt_testmode
    tls_wl_tx.o(.text) refers to tls_wl_tx.o(.data) for .data
    tls_wl_tx.o(.text) refers to tls_wl_core.o(.data) for SEC_TX_DESC_BASE_ADDR
    tls_wl_tx.o(.text) refers to tls_wl_tx.o(.bss) for .bss
    tls_wl_tx.o(.text) refers to tls_wl_key.o(.text) for mic_block
    tls_wl_tx.o(.text) refers to tls_wl_sta_info.o(.text) for sta_info_get
    tls_wl_tx.o(.text) refers to memmove.o(.text) for __aeabi_memcpy
    tls_wl_tx.o(.text) refers to tls_wl_hw.o(.text) for tls_wl_hw_wake_up
    tls_wl_tx.o(.text) refers to tls_wl_util.o(.text) for ieee80211_get_bssid
    tls_wl_tx.o(.text) refers to tls_wl_core.o(.text) for tls_get_ieee80211_if_data
    wm_wifi_api.o(.text) refers to tls_wl_core.o(.text) for tls_get_wif_data
    wm_wifi_api.o(.text) refers to wm_common.o(.text) for mem_alloc_debug
    wm_wifi_api.o(.text) refers to memseta.o(.text) for __aeabi_memclr4
    wm_wifi_api.o(.text) refers to wpa_supplicant.o(.text) for supplicant_send_event
    wm_wifi_api.o(.text) refers to tls_wl_if.o(.text) for tls_wl_if_get_scan_res
    wm_wifi_api.o(.text) refers to wm_rtos.o(.text) for tls_os_set_critical
    wm_wifi_api.o(.text) refers to tls_wl_hw.o(.text) for tls_wl_hw_wake_up
    wm_wifi_api.o(.text) refers to wm_wifi_api.o(.data) for .data
    wm_wifi_api.o(.text) refers to wpa_supplicant.o(.data) for wpa_s
    wm_wifi_api.o(.text) refers to memmove.o(.text) for __aeabi_memcpy
    wm_wifi_api.o(.text) refers to memcmp.o(.text) for memcmp
    wm_wifi_api.o(.text) refers to lwip2.0.3.o(.text) for tls_netif_get_ethif
    wm_wifi_api.o(.text) refers to strlen.o(.text) for strlen
    wm_wifi_api.o(.text) refers to tls_wl_util.o(.text) for ieee80211_channel_to_frequency
    wm_wifi_api.o(.text) refers to hostapd_sta_info.o(.text) for ap_get_authed_sta
    wm_wifi_api.o(.text) refers to ap.o(.data) for ap_iface
    wm_wifi_api.o(.text) refers to tls_wl_mgmt.o(.text) for ieee80211_send_probe_req
    wm_wifi_api.o(.text) refers to tls_wl_tx.o(.text) for ieee80211_send_data
    wm_wifi_oneshot_api.o(.text) refers to wm_common.o(.text) for mem_free_debug
    wm_wifi_oneshot_api.o(.text) refers to memseta.o(.text) for __aeabi_memclr
    wm_wifi_oneshot_api.o(.text) refers to memmove.o(.text) for __aeabi_memcpy
    wm_wifi_oneshot_api.o(.text) refers to strcat.o(.text) for strcat
    wm_wifi_oneshot_api.o(.text) refers to wm_wifi_oneshot_api.o(.bss) for .bss
    wm_wifi_oneshot_api.o(.text) refers to wm_wifi_oneshot_api.o(.data) for .data
    wm_wifi_oneshot_api.o(.text) refers to strncpy.o(.text) for strncpy
    wm_wifi_oneshot_api.o(.text) refers to wm_wifi_oneshot.o(.text) for tls_wifi_get_oneshot_flag
    wm_wifi_oneshot_api.o(.text) refers to strlen.o(.text) for strlen
    wm_wifi_oneshot_api.o(.text) refers to wm_driver.o(.text) for tls_get_mac_addr
    litepoint.o(.text) refers to wm_common.o(.text) for mem_alloc_debug
    litepoint.o(.text) refers to memseta.o(.text) for __aeabi_memclr4
    litepoint.o(.text) refers to wpa_supplicant.o(.text) for wpa_supplicant_get_mac
    litepoint.o(.text) refers to tls_wl_core.o(.text) for tls_get_ieee80211_if_data
    litepoint.o(.text) refers to wm_rtos.o(.text) for tls_os_sem_acquire
    litepoint.o(.text) refers to tls_wl_rc.o(.text) for rc_get_rate_table
    litepoint.o(.text) refers to memmove.o(.text) for __aeabi_memcpy
    litepoint.o(.text) refers to tls_wl_hw.o(.text) for tls_wl_change_channel_info
    litepoint.o(.text) refers to litepoint.o(.data) for .data
    litepoint.o(.text) refers to tls_wl_tx.o(.data) for litept_tx_flag
    litepoint.o(.text) refers to wm_rtos.o(.constdata) for HZ
    litepoint.o(.text) refers to tls_wl_core.o(.bss) for tx_gain_group
    litepoint.o(.text) refers to tls_wl_rf.o(.constdata) for hed_rf_txgainmap
    libtommath.o(.text) refers to os_internal.o(.text) for os_realloc
    libtommath.o(.text) refers to wm_common.o(.text) for mem_alloc_debug
    bss.o(.text) refers to wm_common.o(.text) for mem_free_debug
    bss.o(.text) refers to memseta.o(.text) for __aeabi_memclr4
    bss.o(.text) refers to memmove.o(.text) for __aeabi_memcpy
    bss.o(.text) refers to wpabuf.o(.text) for wpabuf_alloc
    events.o(.text) refers to memseta.o(.text) for __aeabi_memclr4
    events.o(.text) refers to tls_wl_util.o(.text) for ieee802_11_parse_elems
    events.o(.text) refers to wpa_supplicant.o(.text) for wpa_supplicant_associate
    events.o(.text) refers to memcmp.o(.text) for memcmp
    events.o(.text) refers to wpa.o(.text) for wpa_sm_set_assoc_wpa_ie
    events.o(.text) refers to random.o(.text) for random_add_randomness
    events.o(.text) refers to wpabuf.o(.text) for wpabuf_free
    events.o(.text) refers to wm_common.o(.text) for tls_param_get
    events.o(.text) refers to wpa_common.o(.text) for hex2digit
    events.o(.text) refers to memmove.o(.text) for __aeabi_memcpy4
    events.o(.text) refers to wm_rtos.o(.constdata) for HZ
    events.o(.text) refers to scan.o(.text) for wpa_scan_get_ie
    events.o(.text) refers to wpa_ie.o(.text) for wpa_parse_wpa_ie
    events.o(.text) refers to tls_wl_if.o(.text) for tls_wl_if_set_errno
    events.o(.text) refers to wm_rtos.o(.text) for tls_os_sem_acquire
    events.o(.text) refers to bss.o(.text) for wpa_bss_remove
    hostapd.o(.text) refers to memseta.o(.text) for __aeabi_memclr4
    hostapd.o(.text) refers to wm_common.o(.text) for tls_param_get
    hostapd.o(.text) refers to memmove.o(.text) for __aeabi_memcpy
    hostapd.o(.text) refers to sha1-pbkdf2.o(.text) for pbkdf2_sha1
    hostapd.o(.text) refers to wpa_driver.o(.text) for wpa_drv_remove_key
    hostapd.o(.text) refers to hostapd_wpa_driver.o(.text) for hostapd_drv_set_key
    hostapd.o(.text) refers to wpa_auth_glue.o(.text) for hostapd_setup_wpa
    hostapd.o(.text) refers to wpa_auth.o(.text) for wpa_init_keys
    hostapd.o(.text) refers to ap.o(.text) for hostapd_clean_ps_multicast
    hostapd.o(.text) refers to beacon.o(.text) for ieee802_11_set_beacon
    hostapd.o(.text) refers to hostapd_sta_info.o(.text) for hostapd_free_stas
    hostapd.o(.text) refers to hostapd.o(.constdata) for .constdata
    ieee802_1x.o(.text) refers to hostapd_sta_info.o(.text) for ap_sta_set_authorized
    ieee802_1x.o(.text) refers to hostapd_wpa_driver.o(.text) for hostapd_set_authorized
    ieee802_1x.o(.text) refers to wpa_auth.o(.text) for wpa_receive
    ieee802_11.o(.text) refers to random.o(.text) for random_add_randomness
    ieee802_11.o(.text) refers to wm_common.o(.text) for mem_alloc_debug
    ieee802_11.o(.text) refers to ieee802_11_common.o(.text) for hostapd_parse_elems
    ieee802_11.o(.text) refers to hostapd_sta_info.o(.text) for ap_get_sta
    ieee802_11.o(.text) refers to wpa_auth.o(.text) for wpa_auth_sta_init
    ieee802_11.o(.text) refers to wpa_auth_ie.o(.text) for wpa_validate_wpa_ie
    ieee802_11.o(.text) refers to hostapd_wpa_driver.o(.text) for hostapd_drv_sta_disassoc
    ieee802_11.o(.text) refers to hostapd.o(.text) for hostapd_new_assoc_sta
    ieee802_11.o(.text) refers to memseta.o(.text) for __aeabi_memclr
    ieee802_11.o(.text) refers to memcmp.o(.text) for memcmp
    ieee802_11.o(.text) refers to ap_mlme.o(.text) for mlme_authenticate_indication
    ieee802_11.o(.text) refers to beacon.o(.text) for hostapd_eid_wmm_valid
    ieee802_11.o(.text) refers to memmove.o(.text) for __aeabi_memcpy
    ieee802_11.o(.text) refers to ap.o(.text) for hostapd_client_event
    ieee802_11_common.o(.text) refers to memseta.o(.text) for __aeabi_memclr4
    ieee802_11_common.o(.text) refers to wpabuf.o(.text) for wpabuf_alloc
    ieee802_11_common.o(.text) refers to memmove.o(.text) for __aeabi_memcpy
    os_internal.o(.text) refers to wm_common.o(.text) for mem_alloc_debug
    os_internal.o(.text) refers to memseta.o(.text) for __aeabi_memclr
    os_internal.o(.text) refers to memmove.o(.text) for __aeabi_memcpy
    os_internal.o(.text) refers to strlen.o(.text) for strlen
    scan.o(.text) refers to wm_rtos.o(.text) for tls_os_timer_stop
    scan.o(.text) refers to memseta.o(.text) for __aeabi_memclr4
    scan.o(.text) refers to wpa_supplicant.o(.text) for wpa_supplicant_set_state
    scan.o(.text) refers to memmove.o(.text) for __aeabi_memcpy4
    scan.o(.text) refers to wpa_driver.o(.text) for wpa_drv_scan
    scan.o(.text) refers to wpabuf.o(.text) for wpabuf_free
    scan.o(.text) refers to wm_common.o(.text) for mem_free_debug
    scan.o(.text) refers to wm_rtos.o(.constdata) for HZ
    sha1-pbkdf2.o(.text) refers to memmove.o(.text) for __aeabi_memcpy
    sha1-pbkdf2.o(.text) refers to strlen.o(.text) for strlen
    sha1-pbkdf2.o(.text) refers to sha1.o(.text) for hmac_sha1_vector
    hostapd_sta_info.o(.text) refers to wm_common.o(.text) for mem_free_debug
    hostapd_sta_info.o(.text) refers to ap.o(.text) for hostapd_clear_unicast_ps_bit
    hostapd_sta_info.o(.text) refers to memcmp.o(.text) for memcmp
    hostapd_sta_info.o(.text) refers to ap_mlme.o(.text) for mlme_disassociate_indication
    hostapd_sta_info.o(.text) refers to hostapd_wpa_driver.o(.text) for hostapd_drv_get_inact_sec
    hostapd_sta_info.o(.text) refers to wpa_supplicant.o(.text) for eloop_register_timeout
    hostapd_sta_info.o(.text) refers to beacon.o(.text) for ieee802_11_set_beacon
    hostapd_sta_info.o(.text) refers to wpa_auth.o(.text) for wpa_auth_sta_deinit
    hostapd_sta_info.o(.text) refers to ap.o(.data) for ap_iface
    hostapd_sta_info.o(.text) refers to wm_rtos.o(.constdata) for HZ
    hostapd_sta_info.o(.text) refers to memseta.o(.text) for __aeabi_memclr4
    tkip_countermeasures.o(.text) refers to hostapd_wpa_driver.o(.text) for hostapd_drv_set_countermeasures
    tkip_countermeasures.o(.text) refers to wpa_supplicant.o(.text) for eloop_cancel_timeout
    tkip_countermeasures.o(.text) refers to hostapd_sta_info.o(.text) for ap_get_sta
    tkip_countermeasures.o(.text) refers to wpa_auth.o(.text) for wpa_auth_sta_local_mic_failure_report
    tkip_countermeasures.o(.text) refers to ap_mlme.o(.text) for mlme_michaelmicfailure_indication
    tkip_countermeasures.o(.text) refers to wm_rtos.o(.text) for tls_os_get_time
    tkip_countermeasures.o(.text) refers to wm_rtos.o(.constdata) for HZ
    wpa.o(.text) refers to wpa_common.o(.text) for wpa_eapol_key_mic
    wpa.o(.text) refers to wpas_glue.o(.text) for wpa_sm_ether_send
    wpa.o(.text) refers to wm_common.o(.text) for mem_free_debug
    wpa.o(.text) refers to common.o(.text) for inc_byte_array
    wpa.o(.text) refers to memmove.o(.text) for __aeabi_memcpy
    wpa.o(.text) refers to wpa_supplicant.o(.text) for wpa_supplicant_set_state
    wpa.o(.text) refers to memseta.o(.text) for __aeabi_memclr4
    wpa.o(.text) refers to wpa_ie.o(.text) for wpa_supplicant_parse_ies
    wpa.o(.text) refers to random.o(.text) for random_get_bytes
    wpa.o(.text) refers to memcmp.o(.text) for memcmp
    wpa.o(.text) refers to wpa.o(.constdata) for .constdata
    wpa.o(.text) refers to rc4.o(.text) for rc4_skip
    wpa.o(.text) refers to aes_unwrap.o(.text) for aes_unwrap
    wpa_driver.o(.text) refers to wm_common.o(.text) for mem_alloc_debug
    wpa_driver.o(.text) refers to memseta.o(.text) for __aeabi_memclr4
    wpa_driver.o(.text) refers to memmove.o(.text) for __aeabi_memcpy
    wpa_driver.o(.text) refers to tls_wl_if.o(.text) for tls_wl_if_scan
    wpa_driver.o(.text) refers to tls_wl_core.o(.text) for tls_get_wif_data
    wpa_driver.o(.text) refers to ap.o(.text) for hostapd_channel_check
    wpa_ie.o(.text) refers to wpa_common.o(.text) for wpa_parse_wpa_ie_wpa
    wpa_ie.o(.text) refers to memseta.o(.text) for __aeabi_memclr4
    wpabuf.o(.text) refers to os_internal.o(.text) for os_zalloc
    wpabuf.o(.text) refers to memseta.o(.text) for __aeabi_memclr
    wpabuf.o(.text) refers to wm_common.o(.text) for mem_free_debug
    wpabuf.o(.text) refers to memmove.o(.text) for __aeabi_memcpy
    wpas_glue.o(.text) refers to os_internal.o(.text) for os_zalloc
    wpas_glue.o(.text) refers to wpa.o(.text) for wpa_sm_init
    wpas_glue.o(.text) refers to wm_common.o(.text) for mem_alloc_debug
    wpas_glue.o(.text) refers to memmove.o(.text) for __aeabi_memcpy
    wpas_glue.o(.text) refers to memseta.o(.text) for __aeabi_memclr
    wpas_glue.o(.text) refers to wpa_supplicant.o(.text) for wpa_supplicant_deauthenticate
    wpas_glue.o(.text) refers to wpa_driver.o(.text) for wpa_drv_send_eapol
    tls_wl_bss.o(.text) refers to wm_common.o(.text) for mem_free_debug
    tls_wl_bss.o(.text) refers to tls_wl_util.o(.text) for kref_put
    tls_wl_bss.o(.text) refers to wm_rtos.o(.text) for tls_os_sem_acquire
    tls_wl_bss.o(.text) refers to memcmp.o(.text) for memcmp
    tls_wl_bss.o(.text) refers to memmove.o(.text) for __aeabi_memcpy
    tls_wl_bss.o(.text) refers to wm_wifi_api.o(.text) for wpa_update_ssid
    tls_wl_bss.o(.text) refers to wm_rtos.o(.constdata) for HZ
    tls_wl_bss.o(.text) refers to tls_wl_bss.o(.data) for .data
    tls_wl_bss.o(.text) refers to memseta.o(.text) for __aeabi_memclr4
    tls_wl_key.o(.text) refers to wm_rtos.o(.text) for tls_os_get_time
    tls_wl_key.o(.text) refers to rand.o(.text) for srand
    tls_wl_key.o(.text) refers to wm_common.o(.text) for mem_alloc_debug
    tls_wl_key.o(.text) refers to memmove.o(.text) for __aeabi_memcpy4
    tls_wl_key.o(.text) refers to tls_wl_hw.o(.text) for tls_wl_hw_set_key
    tls_wl_mgmt.o(.text) refers to wm_rtos.o(.text) for tls_os_set_critical
    tls_wl_mgmt.o(.text) refers to tls_wl_rc.o(.text) for hw_set_tx_rate_and_power
    tls_wl_mgmt.o(.text) refers to tls_wl_hw.o(.text) for tls_wl_hw_wake_up
    tls_wl_mgmt.o(.text) refers to memseta.o(.text) for __aeabi_memclr4
    tls_wl_mgmt.o(.text) refers to memmove.o(.text) for __aeabi_memcpy
    tls_wl_mgmt.o(.text) refers to tls_wl_bss.o(.text) for ieee80211_bss_get
    tls_wl_mgmt.o(.text) refers to wm_common.o(.text) for mem_free_debug
    tls_wl_mgmt.o(.text) refers to memcmp.o(.text) for memcmp
    tls_wl_mgmt.o(.text) refers to tls_wl_util.o(.text) for ieee80211_hdrlen
    tls_wl_mlme.o(.text) refers to tls_wl_sta_info.o(.text) for sta_info_get
    tls_wl_mlme.o(.text) refers to tls_wl_mgmt.o(.text) for ieee80211_send_deauth_disassoc
    tls_wl_mlme.o(.text) refers to tls_wl_core.o(.text) for ieee80211_reset_erp_info
    tls_wl_mlme.o(.text) refers to memseta.o(.text) for __aeabi_memclr
    tls_wl_mlme.o(.text) refers to tls_wl_bss.o(.text) for ieee80211_bss_get
    tls_wl_mlme.o(.text) refers to wm_rtos.o(.text) for tls_os_sem_acquire
    tls_wl_mlme.o(.text) refers to tls_wl_hw.o(.text) for tls_wl_hw_set_key
    tls_wl_mlme.o(.text) refers to tls_wl_if.o(.text) for tls_wl_if_set_errno
    tls_wl_mlme.o(.text) refers to tls_wl_util.o(.text) for ieee80211_channel_to_frequency
    tls_wl_mlme.o(.text) refers to memcmp.o(.text) for memcmp
    tls_wl_mlme.o(.text) refers to wm_rtos.o(.constdata) for HZ
    tls_wl_mlme.o(.text) refers to tls_wl_rc.o(.text) for hw_set_tx_rate_and_power
    tls_wl_mlme.o(.text) refers to wm_common.o(.text) for mem_free_debug
    tls_wl_mlme.o(.text) refers to memmove.o(.text) for __aeabi_memcpy
    tls_wl_mlme.o(.text) refers to tls_wl_rx.o(.text) for tls_wl_free_rxbuf
    tls_wl_mlme.o(.text) refers to tls_wl_scan.o(.text) for alloc_scan_req
    tls_wl_phy.o(.text) refers to wm_driver.o(.text) for tls_get_tx_iq_phase
    tls_wl_phy.o(.text) refers to tls_wl_phy.o(.constdata) for .constdata
    tls_wl_rc.o(.text) refers to wm_common.o(.text) for tls_param_get
    tls_wl_rc.o(.text) refers to tls_wl_rc.o(.data) for .data
    tls_wl_rx.o(.text) refers to wm_common.o(.text) for mem_free_debug
    tls_wl_rx.o(.text) refers to wm_rtos.o(.text) for tls_os_set_critical
    tls_wl_rx.o(.text) refers to tls_wl_util.o(.text) for ieee80211_hdrlen
    tls_wl_rx.o(.text) refers to memmove.o(.text) for __aeabi_memcpy
    tls_wl_rx.o(.text) refers to memcmp.o(.text) for memcmp
    tls_wl_rx.o(.text) refers to tls_wl_rx.o(.data) for .data
    tls_wl_rx.o(.text) refers to tls_wl_core.o(.data) for SEC_RX_DESC_BASE_ADDR
    tls_wl_rx.o(.text) refers to tls_wl_rx.o(.constdata) for .constdata
    tls_wl_rx.o(.text) refers to tls_wl_sta_info.o(.text) for sta_info_get
    tls_wl_rx.o(.text) refers to tls_wl_if.o(.text) for tls_wl_if_xmit
    tls_wl_rx.o(.text) refers to tls_wl_key.o(.text) for mic_block
    tls_wl_rx.o(.text) refers to tls_wl_bss.o(.text) for ieee80211_bss_info_update
    tls_wl_rx.o(.text) refers to tls_wl_mlme.o(.text) for ieee80211_sta_rx_mgmt
    tls_wl_rx.o(.text) refers to tls_wl_mgmt.o(.text) for ieee80211_send_pspoll
    tls_wl_rx.o(.text) refers to tls_wl_tx.o(.data) for rfc1042_header
    tls_wl_rx.o(.text) refers to tls_wl_rf.o(.data) for hed_rf_current_channel
    tls_wl_rx.o(.text) refers to wm_wifi_oneshot_api.o(.text) for tls_wifi_pbreq_recv
    tls_wl_rx.o(.text) refers to wm_wifi_api.o(.data) for g_wifi_data_recv_callback
    tls_wl_rx.o(.text) refers to litepoint.o(.data) for g_ltpt_testmode
    tls_wl_rx.o(.text) refers to wm_wifi_api.o(.text) for tls_wifi_get_listen_mode
    tls_wl_rx.o(.text) refers to wm_rtos.o(.constdata) for HZ
    tls_wl_scan.o(.text) refers to wm_common.o(.text) for mem_alloc_debug
    tls_wl_scan.o(.text) refers to memseta.o(.text) for __aeabi_memclr4
    tls_wl_scan.o(.text) refers to tls_wl_util.o(.text) for ieee80211_frequency_to_channel
    tls_wl_scan.o(.text) refers to wm_wifi_oneshot.o(.text) for tls_wifi_get_oneshot_flag
    tls_wl_scan.o(.text) refers to memmove.o(.text) for __aeabi_memcpy
    tls_wl_scan.o(.text) refers to tls_wl_hw.o(.text) for tls_wl_hw_wake_up
    tls_wl_scan.o(.text) refers to tls_wl_bss.o(.text) for ieee80211_bss_flush
    tls_wl_scan.o(.text) refers to wm_rtos.o(.text) for tls_os_sem_release
    tls_wl_scan.o(.text) refers to tls_wl_core.o(.text) for ieee80211_hw_config
    tls_wl_scan.o(.text) refers to tls_wl_mgmt.o(.text) for ieee80211_send_probe_req
    tls_wl_scan.o(.text) refers to wm_rtos.o(.constdata) for HZ
    tls_wl_sta_info.o(.text) refers to wm_rtos.o(.text) for tls_os_sem_acquire
    tls_wl_sta_info.o(.text) refers to memcmp.o(.text) for memcmp
    tls_wl_sta_info.o(.text) refers to tls_wl_util.o(.text) for kref_get
    tls_wl_sta_info.o(.text) refers to wm_common.o(.text) for mem_free_debug
    tls_wl_sta_info.o(.text) refers to memseta.o(.text) for __aeabi_memclr4
    tls_wl_sta_info.o(.text) refers to tls_wl_mlme.o(.text) for ieee80211_sta_tear_down_BA_sessions
    tls_wl_sta_info.o(.text) refers to tls_wl_hw.o(.text) for tls_wl_hw_del_key
    tls_wl_sta_info.o(.text) refers to tls_wl_key.o(.text) for ieee80211_key_free
    tls_wl_util.o(.text) refers to wm_rtos.o(.text) for tls_os_set_critical
    tls_wl_util.o(.text) refers to memseta.o(.text) for __aeabi_memclr4
    tls_wl_util.o(.text) refers to tls_wl_core.o(.text) for ieee80211_hw_config
    tls_wl_util.o(.text) refers to memmove.o(.text) for __aeabi_memcpy
    tls_wl_util.o(.text) refers to wm_common.o(.text) for mem_alloc_debug
    tls_wl_util.o(.text) refers to tls_wl_util.o(.bss) for .bss
    tls_wl_util.o(.text) refers to tls_wl_core.o(.data) for BEACON_BUF_ADDR
    tls_rf_tx_iq.o(.text) refers to tx_lo_cal.o(.text) for rf_data_sample_correlation_cal
    tls_rf_tx_iq.o(.text) refers to memseta.o(.text) for __aeabi_memclr4
    tls_rf_tx_iq.o(.text) refers to ldiv.o(.text) for __aeabi_ldivmod
    tls_rf_tx_iq.o(.text) refers to tls_rf_tx_iq.o(.bss) for .bss
    tls_rf_tx_iq.o(.text) refers to tls_rf_tx_iq.o(.data) for .data
    tls_rf_tx_iq.o(.text) refers to tls_rf_fft.o(.data) for FFT_Data
    tls_rf_tx_iq.o(.text) refers to wm_common.o(.text) for mem_alloc_debug
    tls_rf_tx_iq.o(.text) refers to tls_wl_rf.o(.text) for rf_spi_write
    tls_rf_tx_iq.o(.text) refers to wm_rtos.o(.text) for tls_os_set_critical
    tls_rf_tx_iq.o(.text) refers to tx_lo_cal.o(.data) for sample_num
    tls_rf_tx_iq.o(.text) refers to tls_rf_fft.o(.data) for tempRev
    tls_rf_tx_iq.o(.text) refers to tls_wl_rf.o(.data) for hed_rf_current_channel
    tx_lo_cal.o(.text) refers to tls_wl_rf.o(.text) for delay_us
    tx_lo_cal.o(.text) refers to tls_rf_fft.o(.text) for fft
    tx_lo_cal.o(.text) refers to tx_lo_cal.o(.data) for .data
    tx_lo_cal.o(.text) refers to tls_rf_fft.o(.data) for FFT_Data
    tx_lo_cal.o(.text) refers to tls_rf_fft.o(.data) for tempRev
    tx_lo_cal.o(.text) refers to tx_lo_cal.o(.bss) for .bss
    tx_lo_cal.o(.text) refers to wm_common.o(.text) for mem_alloc_debug
    tx_lo_cal.o(.text) refers to memseta.o(.text) for __aeabi_memclr4
    tx_lo_cal.o(.text) refers to tls_wl_rf.o(.data) for hed_rf_current_channel
    tx_lo_cal.o(.text) refers to wm_rtos.o(.text) for tls_os_set_critical
    aes_unwrap.o(.text) refers to memmove.o(.text) for __aeabi_memcpy
    aes_unwrap.o(.text) refers to wm_common.o(.text) for tls_crypto_aes_init
    ap_mlme.o(.text) refers to wpa_auth.o(.text) for wpa_remove_ptk
    beacon.o(.text) refers to wpa_auth.o(.text) for wpa_auth_get_wpa_ie
    beacon.o(.text) refers to memmove.o(.text) for __aeabi_memcpy
    beacon.o(.text) refers to wm_common.o(.text) for mem_alloc_debug
    beacon.o(.text) refers to ieee802_11_common.o(.text) for hostapd_parse_elems
    beacon.o(.text) refers to memcmp.o(.text) for memcmp
    beacon.o(.text) refers to memseta.o(.text) for __aeabi_memclr
    beacon.o(.text) refers to hostapd_sta_info.o(.text) for ap_get_sta
    beacon.o(.text) refers to ieee802_11.o(.text) for hostapd_own_capab_info
    beacon.o(.text) refers to hostapd_wpa_driver.o(.text) for hostapd_drv_send_mlme
    common.o(.text) refers to memmove.o(.text) for __aeabi_memcpy
    common.o(.text) refers to wm_rtos.o(.text) for tls_os_get_time
    common.o(.text) refers to common.o(.bss) for .bss
    common.o(.text) refers to wm_rtos.o(.constdata) for HZ
    wpa_auth.o(.text) refers to hostapd_sta_info.o(.text) for ap_get_sta
    wpa_auth.o(.text) refers to ieee802_1x.o(.text) for ieee802_1x_set_sta_authorized
    wpa_auth.o(.text) refers to hostapd_wpa_driver.o(.text) for hostapd_drv_set_key
    wpa_auth.o(.text) refers to random.o(.text) for random_get_bytes
    wpa_auth.o(.text) refers to wpa_supplicant.o(.text) for eloop_register_timeout
    wpa_auth.o(.text) refers to wm_common.o(.text) for mem_free_debug
    wpa_auth.o(.text) refers to memseta.o(.text) for __aeabi_memclr
    wpa_auth.o(.text) refers to common.o(.text) for inc_byte_array
    wpa_auth.o(.text) refers to memmove.o(.text) for __aeabi_memcpy
    wpa_auth.o(.text) refers to rc4.o(.text) for rc4_skip
    wpa_auth.o(.text) refers to aes_wrap.o(.text) for aes_wrap
    wpa_auth.o(.text) refers to wpa_common.o(.text) for wpa_eapol_key_mic
    wpa_auth.o(.text) refers to wm_rtos.o(.constdata) for HZ
    wpa_auth.o(.text) refers to wpa_auth_ie.o(.text) for wpa_add_kde
    wpa_auth.o(.text) refers to memcmp.o(.text) for memcmp
    wpa_auth.o(.text) refers to sha1.o(.text) for sha1_prf
    wpa_auth.o(.text) refers to ap.o(.text) for hostapd_client_event
    wpa_auth.o(.text) refers to tkip_countermeasures.o(.text) for michael_mic_failure
    wpa_auth_glue.o(.text) refers to tkip_countermeasures.o(.text) for ieee80211_tkip_countermeasures_deinit
    wpa_auth_glue.o(.text) refers to wpa_auth.o(.text) for wpa_deinit
    wpa_auth_glue.o(.text) refers to memseta.o(.text) for __aeabi_memclr4
    wpa_auth_ie.o(.text) refers to memmove.o(.text) for __aeabi_memcpy
    wpa_auth_ie.o(.text) refers to wm_common.o(.text) for mem_free_debug
    wpa_auth_ie.o(.text) refers to wpa_common.o(.text) for wpa_parse_wpa_ie_wpa
    wpa_auth_ie.o(.text) refers to memseta.o(.text) for __aeabi_memclr4
    wpa_common.o(.text) refers to md5.o(.text) for hmac_md5
    wpa_common.o(.text) refers to sha1.o(.text) for hmac_sha1
    wpa_common.o(.text) refers to memmove.o(.text) for __aeabi_memcpy
    wpa_common.o(.text) refers to memcmp.o(.text) for memcmp
    wpa_common.o(.text) refers to memseta.o(.text) for __aeabi_memclr4
    hostapd_wpa_driver.o(.text) refers to tls_wl_if.o(.text) for tls_wl_if_sta_remove
    hostapd_wpa_driver.o(.text) refers to memseta.o(.text) for __aeabi_memclr4
    hostapd_wpa_driver.o(.text) refers to wm_common.o(.text) for mem_alloc_debug
    hostapd_wpa_driver.o(.text) refers to wpa_driver.o(.text) for wpa_drv_set_auth_alg
    hostapd_wpa_driver.o(.text) refers to wm_wifi_api.o(.text) for tls_wifi_get_state
    tls_rf_fft.o(.text) refers to tls_rf_fft.o(.constdata) for .constdata
    tls_rf_fft.o(.text) refers to tx_lo_cal.o(.data) for sample_num
    tls_rf_fft.o(.text) refers to tls_rf_fft.o(.data) for .data
    aes_wrap.o(.text) refers to memseta.o(.text) for __aeabi_memset
    aes_wrap.o(.text) refers to memmove.o(.text) for __aeabi_memcpy
    aes_wrap.o(.text) refers to wm_common.o(.text) for tls_crypto_aes_init
    atof.o(i.__softfp_atof) refers (Special) to iusefp.o(.text) for __I$use$fp
    atof.o(i.__softfp_atof) refers to errno.o(i.__read_errno) for __read_errno
    atof.o(i.__softfp_atof) refers to strtod.o(.text) for __strtod_int
    atof.o(i.__softfp_atof) refers to errno.o(i.__set_errno) for __set_errno
    atof.o(i.atof) refers (Special) to iusefp.o(.text) for __I$use$fp
    atof.o(i.atof) refers to errno.o(i.__read_errno) for __read_errno
    atof.o(i.atof) refers to strtod.o(.text) for __strtod_int
    atof.o(i.atof) refers to errno.o(i.__set_errno) for __set_errno
    floor.o(i.__softfp_floor) refers (Special) to iusefp.o(.text) for __I$use$fp
    floor.o(i.__softfp_floor) refers to floor.o(i.floor) for floor
    floor.o(i.floor) refers (Special) to iusefp.o(.text) for __I$use$fp
    floor.o(i.floor) refers to dadd.o(.text) for __aeabi_dadd
    floor.o(i.floor) refers to cdrcmple.o(.text) for __aeabi_cdrcmple
    pow.o(i.__softfp_pow) refers (Special) to iusefp.o(.text) for __I$use$fp
    pow.o(i.__softfp_pow) refers to pow.o(i.pow) for pow
    pow.o(i.pow) refers (Special) to iusefp.o(.text) for __I$use$fp
    pow.o(i.pow) refers to dadd.o(.text) for __aeabi_dadd
    pow.o(i.pow) refers to errno.o(i.__set_errno) for __set_errno
    pow.o(i.pow) refers to ddiv.o(.text) for __aeabi_ddiv
    pow.o(i.pow) refers to sqrt.o(i.sqrt) for sqrt
    pow.o(i.pow) refers to dmul.o(.text) for __aeabi_dmul
    pow.o(i.pow) refers to dscalb.o(.text) for scalbn
    pow.o(i.pow) refers to dunder.o(i.__mathlib_dbl_underflow) for __mathlib_dbl_underflow
    pow.o(i.pow) refers to qnan.o(.constdata) for __mathlib_zero
    pow.o(i.pow) refers to poly.o(i.__kernel_poly) for __kernel_poly
    pow.o(i.pow) refers to dflti.o(.text) for __aeabi_i2d
    pow.o(i.pow) refers to cdrcmple.o(.text) for __aeabi_cdrcmple
    pow.o(i.pow) refers to pow.o(.constdata) for .constdata
    pow.o(i.pow) refers to fpclassify.o(i.__ARM_fpclassify) for __ARM_fpclassify
    pow.o(.constdata) refers (Special) to iusefp.o(.text) for __I$use$fp
    pow_x.o(i.____softfp_pow$lsc) refers (Special) to iusefp.o(.text) for __I$use$fp
    pow_x.o(i.____softfp_pow$lsc) refers to pow_x.o(i.__pow$lsc) for __pow$lsc
    pow_x.o(i.__pow$lsc) refers (Special) to iusefp.o(.text) for __I$use$fp
    pow_x.o(i.__pow$lsc) refers to dadd.o(.text) for __aeabi_dadd
    pow_x.o(i.__pow$lsc) refers to errno.o(i.__set_errno) for __set_errno
    pow_x.o(i.__pow$lsc) refers to ddiv.o(.text) for __aeabi_ddiv
    pow_x.o(i.__pow$lsc) refers to sqrt.o(i.sqrt) for sqrt
    pow_x.o(i.__pow$lsc) refers to dmul.o(.text) for __aeabi_dmul
    pow_x.o(i.__pow$lsc) refers to dflti.o(.text) for __aeabi_i2d
    pow_x.o(i.__pow$lsc) refers to dscalb.o(.text) for scalbn
    pow_x.o(i.__pow$lsc) refers to qnan.o(.constdata) for __mathlib_zero
    pow_x.o(i.__pow$lsc) refers to pow_x.o(.constdata) for .constdata
    pow_x.o(i.__pow$lsc) refers to poly.o(i.__kernel_poly) for __kernel_poly
    pow_x.o(i.__pow$lsc) refers to cdrcmple.o(.text) for __aeabi_cdrcmple
    pow_x.o(.constdata) refers (Special) to iusefp.o(.text) for __I$use$fp
    entry.o(.ARM.Collect$$$$00000000) refers (Special) to entry7.o(.ARM.Collect$$$$00000007) for _main_init
    entry.o(.ARM.Collect$$$$00000000) refers (Special) to entry5.o(.ARM.Collect$$$$00000004) for _main_scatterload
    entry.o(.ARM.Collect$$$$00000000) refers (Special) to entry2.o(.ARM.Collect$$$$00000001) for _main_stk
    uldiv.o(.text) refers to llushr.o(.text) for __aeabi_llsr
    uldiv.o(.text) refers to llshl.o(.text) for __aeabi_llsl
    ldiv.o(.text) refers to uldiv.o(.text) for __aeabi_uldivmod
    ctype_o.o(.text) refers to ctype_o.o(.constdata) for .constdata
    ctype_o.o(.constdata) refers to ctype_o.o(.constdata) for __ctype_table
    isalnum_o.o(.text) refers to ctype_o.o(.text) for __rt_ctype_table
    isalpha_o.o(.text) refers to ctype_o.o(.text) for __rt_ctype_table
    isblank_o.o(.text) refers to ctype_o.o(.constdata) for __ctype_table
    iscntrl_o.o(.text) refers to ctype_o.o(.text) for __rt_ctype_table
    isdigit_o.o(.text) refers to ctype_o.o(.text) for __rt_ctype_table
    isgraph_o.o(.text) refers to ctype_o.o(.text) for __rt_ctype_table
    islower_o.o(.text) refers to ctype_o.o(.text) for __rt_ctype_table
    isprint_o.o(.text) refers to ctype_o.o(.text) for __rt_ctype_table
    ispunct_o.o(.text) refers to ctype_o.o(.text) for __rt_ctype_table
    isspace_o.o(.text) refers to ctype_o.o(.text) for __rt_ctype_table
    isupper_o.o(.text) refers to ctype_o.o(.text) for __rt_ctype_table
    isxdigit_o.o(.text) refers to ctype_o.o(.text) for __rt_ctype_table
    rand.o(.text) refers to rand.o(.data) for .data
    localtime_w.o(.text) refers to localtime_r.o(.text) for _localtime
    localtime_w.o(.text) refers to localtime_w.o(.bss) for .bss
    localtime_r.o(.text) refers to localtime_r.o(.constdata) for .constdata
    strtok.o(.text) refers to strtok.o(.data) for .data
    strtok_r.o(.text) refers to strtok_r.o(.data) for .data
    strcasecmp.o(.text) refers to tolower.o(.text) for tolower
    printfb.o(i.__0fprintf$bare) refers to printfb.o(i._printf_core) for _printf_core
    printfb.o(i.__0fprintf$bare) refers to retarget.o(.text) for fputc
    printfb.o(i.__0printf$bare) refers to printfb.o(i._printf_core) for _printf_core
    printfb.o(i.__0printf$bare) refers to retarget.o(.text) for fputc
    printfb.o(i.__0printf$bare) refers to retarget.o(.data) for __stdout
    printfb.o(i.__0snprintf$bare) refers to printfb.o(i._printf_core) for _printf_core
    printfb.o(i.__0snprintf$bare) refers to printfb.o(i._snputc) for _snputc
    printfb.o(i.__0sprintf$bare) refers to printfb.o(i._printf_core) for _printf_core
    printfb.o(i.__0sprintf$bare) refers to printfb.o(i._sputc) for _sputc
    printfb.o(i.__0vfprintf$bare) refers to printfb.o(i._printf_core) for _printf_core
    printfb.o(i.__0vfprintf$bare) refers to retarget.o(.text) for fputc
    printfb.o(i.__0vprintf$bare) refers to printfb.o(i._printf_core) for _printf_core
    printfb.o(i.__0vprintf$bare) refers to retarget.o(.text) for fputc
    printfb.o(i.__0vprintf$bare) refers to retarget.o(.data) for __stdout
    printfb.o(i.__0vsnprintf$bare) refers to printfb.o(i._printf_core) for _printf_core
    printfb.o(i.__0vsnprintf$bare) refers to printfb.o(i._snputc) for _snputc
    printfb.o(i.__0vsprintf$bare) refers to printfb.o(i._printf_core) for _printf_core
    printfb.o(i.__0vsprintf$bare) refers to printfb.o(i._sputc) for _sputc
    printf0.o(i.__0fprintf$0) refers to printf0.o(i._printf_core) for _printf_core
    printf0.o(i.__0fprintf$0) refers to retarget.o(.text) for fputc
    printf0.o(i.__0printf$0) refers to printf0.o(i._printf_core) for _printf_core
    printf0.o(i.__0printf$0) refers to retarget.o(.text) for fputc
    printf0.o(i.__0printf$0) refers to retarget.o(.data) for __stdout
    printf0.o(i.__0snprintf$0) refers to printf0.o(i._printf_core) for _printf_core
    printf0.o(i.__0snprintf$0) refers to printf0.o(i._snputc) for _snputc
    printf0.o(i.__0sprintf$0) refers to printf0.o(i._printf_core) for _printf_core
    printf0.o(i.__0sprintf$0) refers to printf0.o(i._sputc) for _sputc
    printf0.o(i.__0vfprintf$0) refers to printf0.o(i._printf_core) for _printf_core
    printf0.o(i.__0vfprintf$0) refers to retarget.o(.text) for fputc
    printf0.o(i.__0vprintf$0) refers to printf0.o(i._printf_core) for _printf_core
    printf0.o(i.__0vprintf$0) refers to retarget.o(.text) for fputc
    printf0.o(i.__0vprintf$0) refers to retarget.o(.data) for __stdout
    printf0.o(i.__0vsnprintf$0) refers to printf0.o(i._printf_core) for _printf_core
    printf0.o(i.__0vsnprintf$0) refers to printf0.o(i._snputc) for _snputc
    printf0.o(i.__0vsprintf$0) refers to printf0.o(i._printf_core) for _printf_core
    printf0.o(i.__0vsprintf$0) refers to printf0.o(i._sputc) for _sputc
    printf1.o(i.__0fprintf$1) refers to printf1.o(i._printf_core) for _printf_core
    printf1.o(i.__0fprintf$1) refers to retarget.o(.text) for fputc
    printf1.o(i.__0printf$1) refers to printf1.o(i._printf_core) for _printf_core
    printf1.o(i.__0printf$1) refers to retarget.o(.text) for fputc
    printf1.o(i.__0printf$1) refers to retarget.o(.data) for __stdout
    printf1.o(i.__0snprintf$1) refers to printf1.o(i._printf_core) for _printf_core
    printf1.o(i.__0snprintf$1) refers to printf1.o(i._snputc) for _snputc
    printf1.o(i.__0sprintf$1) refers to printf1.o(i._printf_core) for _printf_core
    printf1.o(i.__0sprintf$1) refers to printf1.o(i._sputc) for _sputc
    printf1.o(i.__0vfprintf$1) refers to printf1.o(i._printf_core) for _printf_core
    printf1.o(i.__0vfprintf$1) refers to retarget.o(.text) for fputc
    printf1.o(i.__0vprintf$1) refers to printf1.o(i._printf_core) for _printf_core
    printf1.o(i.__0vprintf$1) refers to retarget.o(.text) for fputc
    printf1.o(i.__0vprintf$1) refers to retarget.o(.data) for __stdout
    printf1.o(i.__0vsnprintf$1) refers to printf1.o(i._printf_core) for _printf_core
    printf1.o(i.__0vsnprintf$1) refers to printf1.o(i._snputc) for _snputc
    printf1.o(i.__0vsprintf$1) refers to printf1.o(i._printf_core) for _printf_core
    printf1.o(i.__0vsprintf$1) refers to printf1.o(i._sputc) for _sputc
    printf1.o(i._printf_core) refers to uidiv.o(.text) for __aeabi_uidivmod
    printf2.o(i.__0fprintf$2) refers to printf2.o(i._printf_core) for _printf_core
    printf2.o(i.__0fprintf$2) refers to retarget.o(.text) for fputc
    printf2.o(i.__0printf$2) refers to printf2.o(i._printf_core) for _printf_core
    printf2.o(i.__0printf$2) refers to retarget.o(.text) for fputc
    printf2.o(i.__0printf$2) refers to retarget.o(.data) for __stdout
    printf2.o(i.__0snprintf$2) refers to printf2.o(i._printf_core) for _printf_core
    printf2.o(i.__0snprintf$2) refers to printf2.o(i._snputc) for _snputc
    printf2.o(i.__0sprintf$2) refers to printf2.o(i._printf_core) for _printf_core
    printf2.o(i.__0sprintf$2) refers to printf2.o(i._sputc) for _sputc
    printf2.o(i.__0vfprintf$2) refers to printf2.o(i._printf_core) for _printf_core
    printf2.o(i.__0vfprintf$2) refers to retarget.o(.text) for fputc
    printf2.o(i.__0vprintf$2) refers to printf2.o(i._printf_core) for _printf_core
    printf2.o(i.__0vprintf$2) refers to retarget.o(.text) for fputc
    printf2.o(i.__0vprintf$2) refers to retarget.o(.data) for __stdout
    printf2.o(i.__0vsnprintf$2) refers to printf2.o(i._printf_core) for _printf_core
    printf2.o(i.__0vsnprintf$2) refers to printf2.o(i._snputc) for _snputc
    printf2.o(i.__0vsprintf$2) refers to printf2.o(i._printf_core) for _printf_core
    printf2.o(i.__0vsprintf$2) refers to printf2.o(i._sputc) for _sputc
    printf3.o(i.__0fprintf$3) refers to printf3.o(i._printf_core) for _printf_core
    printf3.o(i.__0fprintf$3) refers to retarget.o(.text) for fputc
    printf3.o(i.__0printf$3) refers to printf3.o(i._printf_core) for _printf_core
    printf3.o(i.__0printf$3) refers to retarget.o(.text) for fputc
    printf3.o(i.__0printf$3) refers to retarget.o(.data) for __stdout
    printf3.o(i.__0snprintf$3) refers to printf3.o(i._printf_core) for _printf_core
    printf3.o(i.__0snprintf$3) refers to printf3.o(i._snputc) for _snputc
    printf3.o(i.__0sprintf$3) refers to printf3.o(i._printf_core) for _printf_core
    printf3.o(i.__0sprintf$3) refers to printf3.o(i._sputc) for _sputc
    printf3.o(i.__0vfprintf$3) refers to printf3.o(i._printf_core) for _printf_core
    printf3.o(i.__0vfprintf$3) refers to retarget.o(.text) for fputc
    printf3.o(i.__0vprintf$3) refers to printf3.o(i._printf_core) for _printf_core
    printf3.o(i.__0vprintf$3) refers to retarget.o(.text) for fputc
    printf3.o(i.__0vprintf$3) refers to retarget.o(.data) for __stdout
    printf3.o(i.__0vsnprintf$3) refers to printf3.o(i._printf_core) for _printf_core
    printf3.o(i.__0vsnprintf$3) refers to printf3.o(i._snputc) for _snputc
    printf3.o(i.__0vsprintf$3) refers to printf3.o(i._printf_core) for _printf_core
    printf3.o(i.__0vsprintf$3) refers to printf3.o(i._sputc) for _sputc
    printf3.o(i._printf_core) refers to uidiv.o(.text) for __aeabi_uidivmod
    printf4.o(i.__0fprintf$4) refers to printf4.o(i._printf_core) for _printf_core
    printf4.o(i.__0fprintf$4) refers to retarget.o(.text) for fputc
    printf4.o(i.__0printf$4) refers to printf4.o(i._printf_core) for _printf_core
    printf4.o(i.__0printf$4) refers to retarget.o(.text) for fputc
    printf4.o(i.__0printf$4) refers to retarget.o(.data) for __stdout
    printf4.o(i.__0snprintf$4) refers to printf4.o(i._printf_core) for _printf_core
    printf4.o(i.__0snprintf$4) refers to printf4.o(i._snputc) for _snputc
    printf4.o(i.__0sprintf$4) refers to printf4.o(i._printf_core) for _printf_core
    printf4.o(i.__0sprintf$4) refers to printf4.o(i._sputc) for _sputc
    printf4.o(i.__0vfprintf$4) refers to printf4.o(i._printf_core) for _printf_core
    printf4.o(i.__0vfprintf$4) refers to retarget.o(.text) for fputc
    printf4.o(i.__0vprintf$4) refers to printf4.o(i._printf_core) for _printf_core
    printf4.o(i.__0vprintf$4) refers to retarget.o(.text) for fputc
    printf4.o(i.__0vprintf$4) refers to retarget.o(.data) for __stdout
    printf4.o(i.__0vsnprintf$4) refers to printf4.o(i._printf_core) for _printf_core
    printf4.o(i.__0vsnprintf$4) refers to printf4.o(i._snputc) for _snputc
    printf4.o(i.__0vsprintf$4) refers to printf4.o(i._printf_core) for _printf_core
    printf4.o(i.__0vsprintf$4) refers to printf4.o(i._sputc) for _sputc
    printf4.o(i._printf_core) refers to uldiv.o(.text) for __aeabi_uldivmod
    printf5.o(i.__0fprintf$5) refers to printf5.o(i._printf_core) for _printf_core
    printf5.o(i.__0fprintf$5) refers to retarget.o(.text) for fputc
    printf5.o(i.__0printf$5) refers to printf5.o(i._printf_core) for _printf_core
    printf5.o(i.__0printf$5) refers to retarget.o(.text) for fputc
    printf5.o(i.__0printf$5) refers to retarget.o(.data) for __stdout
    printf5.o(i.__0snprintf$5) refers to printf5.o(i._printf_core) for _printf_core
    printf5.o(i.__0snprintf$5) refers to printf5.o(i._snputc) for _snputc
    printf5.o(i.__0sprintf$5) refers to printf5.o(i._printf_core) for _printf_core
    printf5.o(i.__0sprintf$5) refers to printf5.o(i._sputc) for _sputc
    printf5.o(i.__0vfprintf$5) refers to printf5.o(i._printf_core) for _printf_core
    printf5.o(i.__0vfprintf$5) refers to retarget.o(.text) for fputc
    printf5.o(i.__0vprintf$5) refers to printf5.o(i._printf_core) for _printf_core
    printf5.o(i.__0vprintf$5) refers to retarget.o(.text) for fputc
    printf5.o(i.__0vprintf$5) refers to retarget.o(.data) for __stdout
    printf5.o(i.__0vsnprintf$5) refers to printf5.o(i._printf_core) for _printf_core
    printf5.o(i.__0vsnprintf$5) refers to printf5.o(i._snputc) for _snputc
    printf5.o(i.__0vsprintf$5) refers to printf5.o(i._printf_core) for _printf_core
    printf5.o(i.__0vsprintf$5) refers to printf5.o(i._sputc) for _sputc
    printf5.o(i._printf_core) refers to uldiv.o(.text) for __aeabi_uldivmod
    printf6.o(i.__0fprintf$6) refers to printf6.o(i._printf_core) for _printf_core
    printf6.o(i.__0fprintf$6) refers to retarget.o(.text) for fputc
    printf6.o(i.__0printf$6) refers to printf6.o(i._printf_core) for _printf_core
    printf6.o(i.__0printf$6) refers to retarget.o(.text) for fputc
    printf6.o(i.__0printf$6) refers to retarget.o(.data) for __stdout
    printf6.o(i.__0snprintf$6) refers to printf6.o(i._printf_core) for _printf_core
    printf6.o(i.__0snprintf$6) refers to printf6.o(i._snputc) for _snputc
    printf6.o(i.__0sprintf$6) refers to printf6.o(i._printf_core) for _printf_core
    printf6.o(i.__0sprintf$6) refers to printf6.o(i._sputc) for _sputc
    printf6.o(i.__0vfprintf$6) refers to printf6.o(i._printf_core) for _printf_core
    printf6.o(i.__0vfprintf$6) refers to retarget.o(.text) for fputc
    printf6.o(i.__0vprintf$6) refers to printf6.o(i._printf_core) for _printf_core
    printf6.o(i.__0vprintf$6) refers to retarget.o(.text) for fputc
    printf6.o(i.__0vprintf$6) refers to retarget.o(.data) for __stdout
    printf6.o(i.__0vsnprintf$6) refers to printf6.o(i._printf_core) for _printf_core
    printf6.o(i.__0vsnprintf$6) refers to printf6.o(i._snputc) for _snputc
    printf6.o(i.__0vsprintf$6) refers to printf6.o(i._printf_core) for _printf_core
    printf6.o(i.__0vsprintf$6) refers to printf6.o(i._sputc) for _sputc
    printf6.o(i._printf_core) refers to printf6.o(i._printf_pre_padding) for _printf_pre_padding
    printf6.o(i._printf_core) refers to uidiv.o(.text) for __aeabi_uidivmod
    printf6.o(i._printf_core) refers to printf6.o(i._printf_post_padding) for _printf_post_padding
    printf7.o(i.__0fprintf$7) refers to printf7.o(i._printf_core) for _printf_core
    printf7.o(i.__0fprintf$7) refers to retarget.o(.text) for fputc
    printf7.o(i.__0printf$7) refers to printf7.o(i._printf_core) for _printf_core
    printf7.o(i.__0printf$7) refers to retarget.o(.text) for fputc
    printf7.o(i.__0printf$7) refers to retarget.o(.data) for __stdout
    printf7.o(i.__0snprintf$7) refers to printf7.o(i._printf_core) for _printf_core
    printf7.o(i.__0snprintf$7) refers to printf7.o(i._snputc) for _snputc
    printf7.o(i.__0sprintf$7) refers to printf7.o(i._printf_core) for _printf_core
    printf7.o(i.__0sprintf$7) refers to printf7.o(i._sputc) for _sputc
    printf7.o(i.__0vfprintf$7) refers to printf7.o(i._printf_core) for _printf_core
    printf7.o(i.__0vfprintf$7) refers to retarget.o(.text) for fputc
    printf7.o(i.__0vprintf$7) refers to printf7.o(i._printf_core) for _printf_core
    printf7.o(i.__0vprintf$7) refers to retarget.o(.text) for fputc
    printf7.o(i.__0vprintf$7) refers to retarget.o(.data) for __stdout
    printf7.o(i.__0vsnprintf$7) refers to printf7.o(i._printf_core) for _printf_core
    printf7.o(i.__0vsnprintf$7) refers to printf7.o(i._snputc) for _snputc
    printf7.o(i.__0vsprintf$7) refers to printf7.o(i._printf_core) for _printf_core
    printf7.o(i.__0vsprintf$7) refers to printf7.o(i._sputc) for _sputc
    printf7.o(i._printf_core) refers to printf7.o(i._printf_pre_padding) for _printf_pre_padding
    printf7.o(i._printf_core) refers to uldiv.o(.text) for __aeabi_uldivmod
    printf7.o(i._printf_core) refers to printf7.o(i._printf_post_padding) for _printf_post_padding
    printf8.o(i.__0fprintf$8) refers to printf8.o(i._printf_core) for _printf_core
    printf8.o(i.__0fprintf$8) refers to retarget.o(.text) for fputc
    printf8.o(i.__0printf$8) refers to printf8.o(i._printf_core) for _printf_core
    printf8.o(i.__0printf$8) refers to retarget.o(.text) for fputc
    printf8.o(i.__0printf$8) refers to retarget.o(.data) for __stdout
    printf8.o(i.__0snprintf$8) refers to printf8.o(i._printf_core) for _printf_core
    printf8.o(i.__0snprintf$8) refers to printf8.o(i._snputc) for _snputc
    printf8.o(i.__0sprintf$8) refers to printf8.o(i._printf_core) for _printf_core
    printf8.o(i.__0sprintf$8) refers to printf8.o(i._sputc) for _sputc
    printf8.o(i.__0vfprintf$8) refers to printf8.o(i._printf_core) for _printf_core
    printf8.o(i.__0vfprintf$8) refers to retarget.o(.text) for fputc
    printf8.o(i.__0vprintf$8) refers to printf8.o(i._printf_core) for _printf_core
    printf8.o(i.__0vprintf$8) refers to retarget.o(.text) for fputc
    printf8.o(i.__0vprintf$8) refers to retarget.o(.data) for __stdout
    printf8.o(i.__0vsnprintf$8) refers to printf8.o(i._printf_core) for _printf_core
    printf8.o(i.__0vsnprintf$8) refers to printf8.o(i._snputc) for _snputc
    printf8.o(i.__0vsprintf$8) refers to printf8.o(i._printf_core) for _printf_core
    printf8.o(i.__0vsprintf$8) refers to printf8.o(i._sputc) for _sputc
    printf8.o(i._printf_core) refers to printf8.o(i._printf_pre_padding) for _printf_pre_padding
    printf8.o(i._printf_core) refers to uldiv.o(.text) for __aeabi_uldivmod
    printf8.o(i._printf_core) refers to printf8.o(i._printf_post_padding) for _printf_post_padding
    printfa.o(i.__0fprintf) refers (Special) to iusefp.o(.text) for __I$use$fp
    printfa.o(i.__0fprintf) refers to printfa.o(i._printf_core) for _printf_core
    printfa.o(i.__0fprintf) refers to retarget.o(.text) for fputc
    printfa.o(i.__0printf) refers (Special) to iusefp.o(.text) for __I$use$fp
    printfa.o(i.__0printf) refers to printfa.o(i._printf_core) for _printf_core
    printfa.o(i.__0printf) refers to retarget.o(.text) for fputc
    printfa.o(i.__0printf) refers to retarget.o(.data) for __stdout
    printfa.o(i.__0snprintf) refers (Special) to iusefp.o(.text) for __I$use$fp
    printfa.o(i.__0snprintf) refers to printfa.o(i._printf_core) for _printf_core
    printfa.o(i.__0snprintf) refers to printfa.o(i._snputc) for _snputc
    printfa.o(i.__0sprintf) refers (Special) to iusefp.o(.text) for __I$use$fp
    printfa.o(i.__0sprintf) refers to printfa.o(i._printf_core) for _printf_core
    printfa.o(i.__0sprintf) refers to printfa.o(i._sputc) for _sputc
    printfa.o(i.__0vfprintf) refers (Special) to iusefp.o(.text) for __I$use$fp
    printfa.o(i.__0vfprintf) refers to printfa.o(i._printf_core) for _printf_core
    printfa.o(i.__0vfprintf) refers to retarget.o(.text) for fputc
    printfa.o(i.__0vprintf) refers (Special) to iusefp.o(.text) for __I$use$fp
    printfa.o(i.__0vprintf) refers to printfa.o(i._printf_core) for _printf_core
    printfa.o(i.__0vprintf) refers to retarget.o(.text) for fputc
    printfa.o(i.__0vprintf) refers to retarget.o(.data) for __stdout
    printfa.o(i.__0vsnprintf) refers (Special) to iusefp.o(.text) for __I$use$fp
    printfa.o(i.__0vsnprintf) refers to printfa.o(i._printf_core) for _printf_core
    printfa.o(i.__0vsnprintf) refers to printfa.o(i._snputc) for _snputc
    printfa.o(i.__0vsprintf) refers (Special) to iusefp.o(.text) for __I$use$fp
    printfa.o(i.__0vsprintf) refers to printfa.o(i._printf_core) for _printf_core
    printfa.o(i.__0vsprintf) refers to printfa.o(i._sputc) for _sputc
    printfa.o(i._fp_digits) refers (Special) to iusefp.o(.text) for __I$use$fp
    printfa.o(i._fp_digits) refers to dmul.o(.text) for __aeabi_dmul
    printfa.o(i._fp_digits) refers to ddiv.o(.text) for __aeabi_ddiv
    printfa.o(i._fp_digits) refers to cdrcmple.o(.text) for __aeabi_cdrcmple
    printfa.o(i._fp_digits) refers to dadd.o(.text) for __aeabi_dadd
    printfa.o(i._fp_digits) refers to dfixul.o(.text) for __aeabi_d2ulz
    printfa.o(i._fp_digits) refers to uldiv.o(.text) for __aeabi_uldivmod
    printfa.o(i._printf_core) refers (Special) to iusefp.o(.text) for __I$use$fp
    printfa.o(i._printf_core) refers to printfa.o(i._printf_pre_padding) for _printf_pre_padding
    printfa.o(i._printf_core) refers to uldiv.o(.text) for __aeabi_uldivmod
    printfa.o(i._printf_core) refers to printfa.o(i._printf_post_padding) for _printf_post_padding
    printfa.o(i._printf_core) refers to printfa.o(i._fp_digits) for _fp_digits
    printfa.o(i._printf_core) refers to uidiv.o(.text) for __aeabi_uidivmod
    printfa.o(i._printf_post_padding) refers (Special) to iusefp.o(.text) for __I$use$fp
    printfa.o(i._printf_pre_padding) refers (Special) to iusefp.o(.text) for __I$use$fp
    printfa.o(i._snputc) refers (Special) to iusefp.o(.text) for __I$use$fp
    printfa.o(i._sputc) refers (Special) to iusefp.o(.text) for __I$use$fp
    malloc.o(i.free) refers to mvars.o(.data) for __microlib_freelist
    malloc.o(i.malloc) refers to mvars.o(.data) for __microlib_freelist_initialised
    malloc.o(i.malloc) refers to mvars.o(.data) for __microlib_freelist
    malloc.o(i.malloc) refers to startup_venus.o(HEAP) for __heap_base
    mallocr.o(i.__free$realloc) refers to mvars.o(.data) for __microlib_freelist
    mallocr.o(i.__malloc$realloc) refers to mallocr.o(i.internal_alloc) for internal_alloc
    mallocr.o(i.__malloc$realloc) refers to mvars.o(.data) for __microlib_freelist_initialised
    mallocr.o(i.__malloc$realloc) refers to startup_venus.o(HEAP) for __heap_base
    mallocr.o(i.__malloc$realloc) refers to mvars.o(.data) for __microlib_freelist
    mallocr.o(i.internal_alloc) refers to memmove.o(.text) for __aeabi_memcpy
    mallocr.o(i.internal_alloc) refers to mvars.o(.data) for __microlib_freelist
    mallocr.o(i.realloc) refers to mallocr.o(i.__free$realloc) for free
    mallocr.o(i.realloc) refers to mallocr.o(i.internal_alloc) for internal_alloc
    mallocr.o(i.realloc) refers to mallocr.o(i.__malloc$realloc) for malloc
    mallocr.o(i.realloc) refers to mvars.o(.data) for __microlib_freelist
    malloca.o(i.__aligned_malloc) refers to mvars.o(.data) for __microlib_freelist_initialised
    malloca.o(i.__aligned_malloc) refers to mvars.o(.data) for __microlib_freelist
    malloca.o(i.__aligned_malloc) refers to startup_venus.o(HEAP) for __heap_base
    malloca.o(i.__free$memalign) refers to mvars.o(.data) for __microlib_freelist
    malloca.o(i.__malloc$memalign) refers to malloca.o(i.__aligned_malloc) for __aligned_malloc
    mallocra.o(i.__aligned_malloc$realloc) refers to mallocra.o(i.internal_alloc) for internal_alloc
    mallocra.o(i.__aligned_malloc$realloc) refers to mvars.o(.data) for __microlib_freelist_initialised
    mallocra.o(i.__aligned_malloc$realloc) refers to startup_venus.o(HEAP) for __heap_base
    mallocra.o(i.__aligned_malloc$realloc) refers to mvars.o(.data) for __microlib_freelist
    mallocra.o(i.__free$realloc$memalign) refers to mvars.o(.data) for __microlib_freelist
    mallocra.o(i.__malloc$realloc$memalign) refers to mallocra.o(i.__aligned_malloc$realloc) for __aligned_malloc$realloc
    mallocra.o(i.__realloc$memalign) refers to mallocra.o(i.__free$realloc$memalign) for __free$realloc$memalign
    mallocra.o(i.__realloc$memalign) refers to mallocra.o(i.internal_alloc) for internal_alloc
    mallocra.o(i.__realloc$memalign) refers to mallocra.o(i.__malloc$realloc$memalign) for __malloc$realloc$memalign
    mallocra.o(i.__realloc$memalign) refers to mvars.o(.data) for __microlib_freelist
    mallocra.o(i.internal_alloc) refers to memmove.o(.text) for __aeabi_memcpy
    mallocra.o(i.internal_alloc) refers to mvars.o(.data) for __microlib_freelist
    errno.o(i.__aeabi_errno_addr) refers to errno.o(.data) for .data
    errno.o(i.__read_errno) refers to errno.o(.data) for .data
    errno.o(i.__set_errno) refers to errno.o(.data) for .data
    __0sscanf.o(.text) refers to scanf_char.o(.text) for __vfscanf_char
    __0sscanf.o(.text) refers to _sgetc.o(.text) for _sgetc
    _scanf_longlong.o(.text) refers to _chval.o(.text) for _chval
    _scanf_int.o(.text) refers to _chval.o(.text) for _chval
    scanf_fp.o(.text) refers (Special) to iusefp.o(.text) for __I$use$fp
    scanf_fp.o(.text) refers to dfltul.o(.text) for __aeabi_ul2d
    scanf_fp.o(.text) refers to dmul.o(.text) for __aeabi_dmul
    scanf_fp.o(.text) refers to ddiv.o(.text) for __aeabi_ddiv
    scanf_fp.o(.text) refers to d2f.o(.text) for __aeabi_d2f
    atoi.o(.text) refers to errno.o(i.__aeabi_errno_addr) for __aeabi_errno_addr
    atoi.o(.text) refers to strtol.o(.text) for strtol
    atol.o(.text) refers to errno.o(i.__aeabi_errno_addr) for __aeabi_errno_addr
    atol.o(.text) refers to strtol.o(.text) for strtol
    atoll.o(.text) refers to errno.o(i.__aeabi_errno_addr) for __aeabi_errno_addr
    atoll.o(.text) refers to __strtoll.o(.text) for __strtoll
    fadd.o(.text) refers (Special) to iusefp.o(.text) for __I$use$fp
    fadd.o(.text) refers to fepilogue.o(.text) for _float_epilogue
    fmul.o(.text) refers (Special) to iusefp.o(.text) for __I$use$fp
    fdiv.o(.text) refers (Special) to iusefp.o(.text) for __I$use$fp
    fdiv.o(.text) refers to fepilogue.o(.text) for _float_round
    fscalb.o(.text) refers (Special) to iusefp.o(.text) for __I$use$fp
    dadd.o(.text) refers (Special) to iusefp.o(.text) for __I$use$fp
    dadd.o(.text) refers to llshl.o(.text) for __aeabi_llsl
    dadd.o(.text) refers to llsshr.o(.text) for __aeabi_lasr
    dadd.o(.text) refers to depilogue.o(.text) for _double_epilogue
    dmul.o(.text) refers (Special) to iusefp.o(.text) for __I$use$fp
    dmul.o(.text) refers to depilogue.o(.text) for _double_epilogue
    ddiv.o(.text) refers (Special) to iusefp.o(.text) for __I$use$fp
    ddiv.o(.text) refers to depilogue.o(.text) for _double_round
    dscalb.o(.text) refers (Special) to iusefp.o(.text) for __I$use$fp
    fflti.o(.text) refers (Special) to iusefp.o(.text) for __I$use$fp
    fflti.o(.text) refers to fepilogue.o(.text) for _float_epilogue
    dflti.o(.text) refers (Special) to iusefp.o(.text) for __I$use$fp
    dflti.o(.text) refers to depilogue.o(.text) for _double_epilogue
    dfltui.o(.text) refers (Special) to iusefp.o(.text) for __I$use$fp
    dfltui.o(.text) refers to depilogue.o(.text) for _double_epilogue
    dfltul.o(.text) refers (Special) to iusefp.o(.text) for __I$use$fp
    dfltul.o(.text) refers to depilogue.o(.text) for _double_epilogue
    dfixi.o(.text) refers (Special) to iusefp.o(.text) for __I$use$fp
    dfixi.o(.text) refers to llushr.o(.text) for __aeabi_llsr
    dfixul.o(.text) refers (Special) to iusefp.o(.text) for __I$use$fp
    dfixul.o(.text) refers to llushr.o(.text) for __aeabi_llsr
    dfixul.o(.text) refers to llshl.o(.text) for __aeabi_llsl
    f2d.o(.text) refers (Special) to iusefp.o(.text) for __I$use$fp
    cdcmple.o(.text) refers (Special) to iusefp.o(.text) for __I$use$fp
    cdrcmple.o(.text) refers (Special) to iusefp.o(.text) for __I$use$fp
    dunder.o(i.__mathlib_dbl_underflow) refers to dscalb.o(.text) for scalbn
    fpclassify.o(i.__ARM_fpclassify) refers (Special) to iusefp.o(.text) for __I$use$fp
    poly.o(i.__kernel_poly) refers (Special) to iusefp.o(.text) for __I$use$fp
    poly.o(i.__kernel_poly) refers to dmul.o(.text) for __aeabi_dmul
    poly.o(i.__kernel_poly) refers to dadd.o(.text) for __aeabi_dadd
    qnan.o(.constdata) refers (Special) to iusefp.o(.text) for __I$use$fp
    sqrt.o(i.__softfp_sqrt) refers (Special) to iusefp.o(.text) for __I$use$fp
    sqrt.o(i.__softfp_sqrt) refers to dsqrt.o(.text) for _dsqrt
    sqrt.o(i.__softfp_sqrt) refers to errno.o(i.__set_errno) for __set_errno
    sqrt.o(i.sqrt) refers (Special) to iusefp.o(.text) for __I$use$fp
    sqrt.o(i.sqrt) refers to dsqrt.o(.text) for _dsqrt
    sqrt.o(i.sqrt) refers to errno.o(i.__set_errno) for __set_errno
    sqrt_x.o(i.____softfp_sqrt$lsc) refers (Special) to iusefp.o(.text) for __I$use$fp
    sqrt_x.o(i.____softfp_sqrt$lsc) refers to cdcmple.o(.text) for __aeabi_cdcmple
    sqrt_x.o(i.____softfp_sqrt$lsc) refers to errno.o(i.__set_errno) for __set_errno
    sqrt_x.o(i.____softfp_sqrt$lsc) refers to dsqrt.o(.text) for _dsqrt
    sqrt_x.o(i.__sqrt$lsc) refers (Special) to iusefp.o(.text) for __I$use$fp
    sqrt_x.o(i.__sqrt$lsc) refers to cdcmple.o(.text) for __aeabi_cdcmple
    sqrt_x.o(i.__sqrt$lsc) refers to errno.o(i.__set_errno) for __set_errno
    sqrt_x.o(i.__sqrt$lsc) refers to dsqrt.o(.text) for _dsqrt
    entry2.o(.ARM.Collect$$$$00000001) refers to entry2.o(.ARM.Collect$$$$00002712) for __lit__00000000
    entry2.o(.ARM.Collect$$$$00002712) refers to startup_venus.o(.bss) for __initial_sp
    entry2.o(__vectab_stack_and_reset_area) refers to startup_venus.o(.bss) for __initial_sp
    entry2.o(__vectab_stack_and_reset_area) refers to entry.o(.ARM.Collect$$$$00000000) for __main
    entry5.o(.ARM.Collect$$$$00000004) refers to init.o(.text) for __scatterload
    entry7.o(.ARM.Collect$$$$00000007) refers to wm_main.o(.text) for main
    localtime_i.o(.text) refers to localtime_i.o(.constdata) for .constdata
    scanf_char.o(.text) refers to _scanf.o(.text) for __vfscanf
    scanf_char.o(.text) refers to isspace_o.o(.text) for isspace
    strtod.o(.text) refers to scanf_fp.o(.text) for _scanf_real
    strtod.o(.text) refers to _sgetc.o(.text) for _sgetc
    strtod.o(.text) refers to isspace_o.o(.text) for isspace
    strtol.o(.text) refers to ctype_o.o(.text) for __rt_ctype_table
    strtol.o(.text) refers to _strtoul.o(.text) for _strtoul
    strtol.o(.text) refers to errno.o(i.__aeabi_errno_addr) for __aeabi_errno_addr
    __strtoll.o(.text) refers to ctype_o.o(.text) for __rt_ctype_table
    __strtoll.o(.text) refers to _strtoull.o(.text) for _strtoull
    __strtoll.o(.text) refers to errno.o(i.__aeabi_errno_addr) for __aeabi_errno_addr
    depilogue.o(.text) refers to llshl.o(.text) for __aeabi_llsl
    depilogue.o(.text) refers to llushr.o(.text) for __aeabi_llsr
    d2f.o(.text) refers to fepilogue.o(.text) for _float_round
    init.o(.text) refers to entry5.o(.ARM.Collect$$$$00000004) for __main_after_scatterload
    isspace_c.o(.text) refers to ctype_c.o(.text) for __ctype_lookup
    _scanf.o(.text) refers (Weak) to scanf_fp.o(.text) for _scanf_real
    _scanf.o(.text) refers (Weak) to _scanf_longlong.o(.text) for _scanf_longlong
    _scanf.o(.text) refers (Weak) to _scanf_int.o(.text) for _scanf_int
    _scanf.o(.text) refers (Weak) to _scanf_str.o(.text) for _scanf_string
    _strtoul.o(.text) refers to _chval.o(.text) for _chval
    _strtoul.o(.text) refers to errno.o(i.__aeabi_errno_addr) for __aeabi_errno_addr
    _strtoull.o(.text) refers to _chval.o(.text) for _chval
    _strtoull.o(.text) refers to errno.o(i.__aeabi_errno_addr) for __aeabi_errno_addr
    dsqrt.o(.text) refers to llushr.o(.text) for __aeabi_llsr
    dsqrt.o(.text) refers to depilogue.o(.text) for _double_round
    ctype_c.o(.text) refers to ctype_c.o(.constdata) for .constdata


==============================================================================

Removing Unused input sections from the image.

    Removing retarget.o(.data), (4 bytes).
    Removing wm_driver.o(.bss), (4096 bytes).
    Removing wm_driver.o(.data), (2 bytes).
    Removing wm_driver.o(.data), (2 bytes).
    Removing wm_driver.o(.data), (4 bytes).
    Removing wm_driver.o(.data), (4 bytes).
    Removing wm_common.o(.constdata), (4 bytes).
    Removing wm_common.o(.data), (4 bytes).
    Removing wm_common.o(.data), (4 bytes).
    Removing wm_common.o(.data), (4 bytes).
    Removing wm_wifi_oneshot.o(.data), (1 bytes).
    Removing wm_oneshot_lsd.o(.data), (2 bytes).
    Removing wm_rtos.o(.data), (4 bytes).
    Removing lwip2.0.3.o(.constdata), (4 bytes).
    Removing lwip2.0.3.o(.constdata), (4 bytes).
    Removing ntp_client.o(.text), (784 bytes).
    Removing ntp_client.o(.bss), (108 bytes).
    Removing ntp_client.o(.constdata), (12 bytes).
    Removing ntp_client.o(.data), (1 bytes).
    Removing base64-decode.o(.text), (396 bytes).
    Removing base64-decode.o(.constdata), (146 bytes).
    Removing client.o(.text), (3450 bytes).
    Removing client-handshake.o(.text), (2072 bytes).
    Removing client-handshake.o(.constdata), (74 bytes).
    Removing client-parser.o(.text), (1256 bytes).
    Removing context.o(.text), (1908 bytes).
    Removing context.o(.constdata), (141 bytes).
    Removing context.o(.conststring), (33 bytes).
    Removing context.o(.data), (4 bytes).
    Removing handshake.o(.text), (324 bytes).
    Removing handshake.o(.constdata), (9 bytes).
    Removing header.o(.text), (1000 bytes).
    Removing header.o(.constdata), (432 bytes).
    Removing header.o(.conststring), (1491 bytes).
    Removing libwebsockets.o(.text), (3932 bytes).
    Removing libwebsockets.o(.constdata), (83 bytes).
    Removing libwebsockets.o(.conststring), (85 bytes).
    Removing libwebsockets.o(.data), (16 bytes).
    Removing lws-plat-wm.o(.text), (1076 bytes).
    Removing output.o(.text), (1526 bytes).
    Removing output.o(.constdata), (148 bytes).
    Removing parsers.o(.text), (4088 bytes).
    Removing parsers.o(.constdata), (1168 bytes).
    Removing pollfd.o(.text), (1324 bytes).
    Removing pollfd.o(.constdata), (81 bytes).
    Removing service.o(.text), (2102 bytes).
    Removing service.o(.constdata), (27 bytes).
    Removing async.o(.text), (396 bytes).
    Removing block.o(.text), (592 bytes).
    Removing debug.o(.text), (1092 bytes).
    Removing debug.o(.conststring), (403 bytes).
    Removing debug.o(.data), (296 bytes).
    Removing encode.o(.text), (74 bytes).
    Removing hashkey.o(.text), (48 bytes).
    Removing option.o(.text), (1480 bytes).
    Removing pdu.o(.text), (1192 bytes).
    Removing pdu.o(.conststring), (344 bytes).
    Removing pdu.o(.data), (192 bytes).
    Removing resource.o(.text), (2352 bytes).
    Removing resource.o(.constdata), (239 bytes).
    Removing resource.o(.conststring), (10 bytes).
    Removing str.o(.text), (76 bytes).
    Removing subscribe.o(.text), (6 bytes).
    Removing uri_libcoap.o(.text), (1164 bytes).
    Removing mem_libcoap.o(.text), (14 bytes).
    Removing coap_io_lwip.o(.text), (236 bytes).
    Removing net.o(.text), (5500 bytes).
    Removing cjson.o(.text), (4116 bytes).
    Removing cjson.o(.constdata), (7 bytes).
    Removing cjson.o(.data), (4 bytes).
    Removing libemqtt.o(.text), (1764 bytes).
    Removing wm_matrixssl_compile.o(.constdata), (58 bytes).
    Removing iperf_api.o(.text), (6584 bytes).
    Removing iperf_api.o(.bss), (384 bytes).
    Removing iperf_api.o(.constdata), (12 bytes).
    Removing iperf_api.o(.data), (16 bytes).
    Removing iperf_client_api.o(.text), (1192 bytes).
    Removing iperf_error.o(.text), (2344 bytes).
    Removing iperf_error.o(.bss), (256 bytes).
    Removing iperf_error.o(.data), (4 bytes).
    Removing iperf_locale.o(.constdata), (78 bytes).
    Removing iperf_locale.o(.constdata), (993 bytes).
    Removing iperf_locale.o(.constdata), (723 bytes).
    Removing iperf_locale.o(.constdata), (39 bytes).
    Removing iperf_locale.o(.constdata), (62 bytes).
    Removing iperf_locale.o(.constdata), (32 bytes).
    Removing iperf_locale.o(.constdata), (37 bytes).
    Removing iperf_locale.o(.constdata), (29 bytes).
    Removing iperf_locale.o(.constdata), (29 bytes).
    Removing iperf_locale.o(.constdata), (29 bytes).
    Removing iperf_locale.o(.constdata), (27 bytes).
    Removing iperf_locale.o(.constdata), (29 bytes).
    Removing iperf_locale.o(.constdata), (16 bytes).
    Removing iperf_locale.o(.constdata), (16 bytes).
    Removing iperf_locale.o(.constdata), (10 bytes).
    Removing iperf_locale.o(.constdata), (72 bytes).
    Removing iperf_locale.o(.constdata), (73 bytes).
    Removing iperf_locale.o(.constdata), (77 bytes).
    Removing iperf_locale.o(.constdata), (57 bytes).
    Removing iperf_locale.o(.constdata), (41 bytes).
    Removing iperf_locale.o(.constdata), (45 bytes).
    Removing iperf_locale.o(.constdata), (31 bytes).
    Removing iperf_locale.o(.constdata), (37 bytes).
    Removing iperf_locale.o(.constdata), (37 bytes).
    Removing iperf_locale.o(.constdata), (81 bytes).
    Removing iperf_locale.o(.constdata), (64 bytes).
    Removing iperf_locale.o(.constdata), (56 bytes).
    Removing iperf_locale.o(.constdata), (64 bytes).
    Removing iperf_locale.o(.constdata), (64 bytes).
    Removing iperf_locale.o(.constdata), (59 bytes).
    Removing iperf_locale.o(.constdata), (59 bytes).
    Removing iperf_locale.o(.constdata), (50 bytes).
    Removing iperf_locale.o(.constdata), (66 bytes).
    Removing iperf_locale.o(.constdata), (44 bytes).
    Removing iperf_locale.o(.constdata), (25 bytes).
    Removing iperf_locale.o(.constdata), (25 bytes).
    Removing iperf_locale.o(.constdata), (22 bytes).
    Removing iperf_locale.o(.constdata), (12 bytes).
    Removing iperf_locale.o(.constdata), (26 bytes).
    Removing iperf_locale.o(.constdata), (45 bytes).
    Removing iperf_locale.o(.constdata), (25 bytes).
    Removing iperf_locale.o(.constdata), (120 bytes).
    Removing iperf_locale.o(.constdata), (62 bytes).
    Removing iperf_locale.o(.constdata), (49 bytes).
    Removing iperf_locale.o(.constdata), (69 bytes).
    Removing iperf_locale.o(.constdata), (60 bytes).
    Removing iperf_locale.o(.constdata), (78 bytes).
    Removing iperf_locale.o(.constdata), (43 bytes).
    Removing iperf_locale.o(.constdata), (18 bytes).
    Removing iperf_locale.o(.constdata), (68 bytes).
    Removing iperf_locale.o(.constdata), (50 bytes).
    Removing iperf_locale.o(.constdata), (50 bytes).
    Removing iperf_locale.o(.constdata), (56 bytes).
    Removing iperf_locale.o(.constdata), (41 bytes).
    Removing iperf_locale.o(.constdata), (52 bytes).
    Removing iperf_locale.o(.constdata), (66 bytes).
    Removing iperf_locale.o(.constdata), (62 bytes).
    Removing iperf_locale.o(.constdata), (61 bytes).
    Removing iperf_locale.o(.constdata), (143 bytes).
    Removing iperf_main.o(.text), (196 bytes).
    Removing iperf_main.o(.data), (4 bytes).
    Removing iperf_net.o(.text), (632 bytes).
    Removing iperf_server_api.o(.text), (1900 bytes).
    Removing iperf_tcp.o(.text), (820 bytes).
    Removing iperf_timer.o(.text), (560 bytes).
    Removing iperf_udp.o(.text), (860 bytes).
    Removing iperf_udp.o(.constdata), (74 bytes).
    Removing iperf_units.o(.text), (920 bytes).
    Removing iperf_units.o(.constdata), (4 bytes).
    Removing iperf_units.o(.constdata), (4 bytes).
    Removing iperf_units.o(.constdata), (4 bytes).
    Removing iperf_units.o(.constdata), (4 bytes).
    Removing iperf_units.o(.constdata), (4 bytes).
    Removing iperf_units.o(.constdata), (4 bytes).
    Removing iperf_units.o(.constdata), (32 bytes).
    Removing iperf_units.o(.constdata), (32 bytes).
    Removing iperf_units.o(.constdata), (16 bytes).
    Removing iperf_units.o(.constdata), (16 bytes).
    Removing iperf_units.o(.constdata), (32 bytes).
    Removing iperf_units.o(.conststring), (42 bytes).
    Removing iperf_units.o(.data), (32 bytes).
    Removing iperf_util.o(.text), (196 bytes).
    Removing tcp_info.o(.text), (6 bytes).
    Removing tcp_window_size.o(.text), (64 bytes).
    Removing asn1parse.o(.text), (556 bytes).
    Removing base64.o(.text), (260 bytes).
    Removing base64.o(.constdata), (128 bytes).
    Removing cipher.o(.text), (828 bytes).
    Removing cipher.o(.constdata), (4 bytes).
    Removing pem.o(.text), (284 bytes).
    Removing rsa.o(.text), (920 bytes).
    Removing ssl_cli.o(.text), (1268 bytes).
    Removing ssl_tls.o(.text), (4692 bytes).
    Removing ssl_tls.o(.data), (12 bytes).
    Removing x509parse.o(.text), (3948 bytes).
    Removing polarssl_md5.o(.text), (38 bytes).
    Removing polarssl_sha1.o(.text), (38 bytes).
    Removing arc4.o(.text), (128 bytes).
    Removing mdnsposix.o(.text), (2508 bytes).
    Removing mdnsposix.o(.bss), (1512 bytes).
    Removing mdnsposix.o(.constdata), (12 bytes).
    Removing mdnsposix.o(.data), (12 bytes).
    Removing mdnsposix.o(.data), (4 bytes).
    Removing mdns.o(.text), (22674 bytes).
    Removing mdns.o(.bss), (28 bytes).
    Removing mdns.o(.bss), (312 bytes).
    Removing mdns.o(.constdata), (2 bytes).
    Removing mdns.o(.constdata), (211 bytes).
    Removing mdns.o(.constdata), (4 bytes).
    Removing mdns.o(.constdata), (2 bytes).
    Removing mdns.o(.constdata), (4 bytes).
    Removing mdns.o(.data), (22 bytes).
    Removing httpd.o(.constdata), (7 bytes).
    Removing httpd.o(.constdata), (207 bytes).
    Removing wpa_supplicant.o(.constdata), (3 bytes).
    Removing tls_wl_core.o(.rev16_text), (4 bytes).
    Removing tls_wl_core.o(.revsh_text), (4 bytes).
    Removing tls_wl_core.o(.bss), (1024 bytes).
    Removing tls_wl_hw.o(.rev16_text), (4 bytes).
    Removing tls_wl_hw.o(.revsh_text), (4 bytes).
    Removing tls_wl_if.o(.rev16_text), (4 bytes).
    Removing tls_wl_if.o(.revsh_text), (4 bytes).
    Removing tls_wl_rf.o(.rev16_text), (4 bytes).
    Removing tls_wl_rf.o(.revsh_text), (4 bytes).
    Removing tls_wl_rf.o(.data), (15 bytes).
    Removing tls_wl_tx.o(.rev16_text), (4 bytes).
    Removing tls_wl_tx.o(.revsh_text), (4 bytes).
    Removing wm_wifi_api.o(.rev16_text), (4 bytes).
    Removing wm_wifi_api.o(.revsh_text), (4 bytes).
    Removing litepoint.o(.rev16_text), (4 bytes).
    Removing litepoint.o(.revsh_text), (4 bytes).
    Removing tls_wl_mgmt.o(.rev16_text), (4 bytes).
    Removing tls_wl_mgmt.o(.revsh_text), (4 bytes).
    Removing tls_wl_mlme.o(.rev16_text), (4 bytes).
    Removing tls_wl_mlme.o(.revsh_text), (4 bytes).
    Removing tls_wl_phy.o(.rev16_text), (4 bytes).
    Removing tls_wl_phy.o(.revsh_text), (4 bytes).
    Removing tls_wl_rc.o(.rev16_text), (4 bytes).
    Removing tls_wl_rc.o(.revsh_text), (4 bytes).
    Removing tls_wl_rx.o(.rev16_text), (4 bytes).
    Removing tls_wl_rx.o(.revsh_text), (4 bytes).
    Removing tls_rf_tx_iq.o(.rev16_text), (4 bytes).
    Removing tls_rf_tx_iq.o(.revsh_text), (4 bytes).
    Removing tx_lo_cal.o(.rev16_text), (4 bytes).
    Removing tx_lo_cal.o(.revsh_text), (4 bytes).
    Removing wpa_auth.o(.constdata), (136 bytes).
    Removing tls_rf_fft.o(.rev16_text), (4 bytes).
    Removing tls_rf_fft.o(.revsh_text), (4 bytes).
    Removing fadd.o(.text), (176 bytes).
    Removing fmul.o(.text), (108 bytes).
    Removing fdiv.o(.text), (128 bytes).
    Removing fscalb.o(.text), (24 bytes).
    Removing fflti.o(.text), (18 bytes).
    Removing dfltul.o(.text), (24 bytes).
    Removing f2d.o(.text), (44 bytes).
    Removing cdcmple.o(.text), (40 bytes).
    Removing fepilogue.o(.text), (112 bytes).
    Removing d2f.o(.text), (56 bytes).
    Removing dsqrt.o(.text), (160 bytes).

239 unused section(s) (total 119712 bytes) removed from the image.

==============================================================================

Image Symbol Table

    Local Symbols

    Symbol Name                              Value     Ov Type        Size  Object(Section)

    ../../../cmprslib/zerorunl2.c            0x00000000   Number         0  __dczerorl2.o ABSOLUTE
    ../../atof.c                             0x00000000   Number         0  atof.o ABSOLUTE
    ../../dunder.c                           0x00000000   Number         0  dunder.o ABSOLUTE
    ../../floor.c                            0x00000000   Number         0  floor.o ABSOLUTE
    ../../fpclassify.c                       0x00000000   Number         0  fpclassify.o ABSOLUTE
    ../../microlib/ctype/ctype.c             0x00000000   Number         0  isalpha_o.o ABSOLUTE
    ../../microlib/ctype/ctype.c             0x00000000   Number         0  iscntrl_o.o ABSOLUTE
    ../../microlib/ctype/ctype.c             0x00000000   Number         0  isdigit_o.o ABSOLUTE
    ../../microlib/ctype/ctype.c             0x00000000   Number         0  isblank_o.o ABSOLUTE
    ../../microlib/ctype/ctype.c             0x00000000   Number         0  isspace_o.o ABSOLUTE
    ../../microlib/ctype/ctype.c             0x00000000   Number         0  isspace_c.o ABSOLUTE
    ../../microlib/ctype/ctype.c             0x00000000   Number         0  isalnum_o.o ABSOLUTE
    ../../microlib/ctype/ctype.c             0x00000000   Number         0  ctype_o.o ABSOLUTE
    ../../microlib/ctype/ctype.c             0x00000000   Number         0  isgraph_o.o ABSOLUTE
    ../../microlib/ctype/ctype.c             0x00000000   Number         0  isprint_o.o ABSOLUTE
    ../../microlib/ctype/ctype.c             0x00000000   Number         0  ispunct_o.o ABSOLUTE
    ../../microlib/ctype/ctype.c             0x00000000   Number         0  isxdigit_o.o ABSOLUTE
    ../../microlib/ctype/ctype.c             0x00000000   Number         0  isupper_o.o ABSOLUTE
    ../../microlib/ctype/ctype.c             0x00000000   Number         0  islower_o.o ABSOLUTE
    ../../microlib/ctype/ctype.c             0x00000000   Number         0  ctype_c.o ABSOLUTE
    ../../microlib/ctype/tolower.c           0x00000000   Number         0  tolower.o ABSOLUTE
    ../../microlib/ctype/toupper.c           0x00000000   Number         0  toupper.o ABSOLUTE
    ../../microlib/d2f.c                     0x00000000   Number         0  d2f.o ABSOLUTE
    ../../microlib/division.c                0x00000000   Number         0  ldiv.o ABSOLUTE
    ../../microlib/division.c                0x00000000   Number         0  uldiv.o ABSOLUTE
    ../../microlib/division.c                0x00000000   Number         0  uidiv.o ABSOLUTE
    ../../microlib/errno.c                   0x00000000   Number         0  errno.o ABSOLUTE
    ../../microlib/f2d.c                     0x00000000   Number         0  f2d.o ABSOLUTE
    ../../microlib/fpadd.c                   0x00000000   Number         0  dadd.o ABSOLUTE
    ../../microlib/fpadd.c                   0x00000000   Number         0  fadd.o ABSOLUTE
    ../../microlib/fpdiv.c                   0x00000000   Number         0  ddiv.o ABSOLUTE
    ../../microlib/fpdiv.c                   0x00000000   Number         0  fdiv.o ABSOLUTE
    ../../microlib/fpepilogue.c              0x00000000   Number         0  fepilogue.o ABSOLUTE
    ../../microlib/fpepilogue.c              0x00000000   Number         0  depilogue.o ABSOLUTE
    ../../microlib/fpfix.c                   0x00000000   Number         0  dfixul.o ABSOLUTE
    ../../microlib/fpfix.c                   0x00000000   Number         0  dfixi.o ABSOLUTE
    ../../microlib/fpflt.c                   0x00000000   Number         0  dfltui.o ABSOLUTE
    ../../microlib/fpflt.c                   0x00000000   Number         0  dflti.o ABSOLUTE
    ../../microlib/fpflt.c                   0x00000000   Number         0  fflti.o ABSOLUTE
    ../../microlib/fpflt.c                   0x00000000   Number         0  dfltul.o ABSOLUTE
    ../../microlib/fpmul.c                   0x00000000   Number         0  dmul.o ABSOLUTE
    ../../microlib/fpmul.c                   0x00000000   Number         0  fmul.o ABSOLUTE
    ../../microlib/fpscalb.c                 0x00000000   Number         0  dscalb.o ABSOLUTE
    ../../microlib/fpscalb.c                 0x00000000   Number         0  fscalb.o ABSOLUTE
    ../../microlib/fpsqrt.c                  0x00000000   Number         0  dsqrt.o ABSOLUTE
    ../../microlib/init/entry.s              0x00000000   Number         0  entry.o ABSOLUTE
    ../../microlib/init/entry.s              0x00000000   Number         0  entry5.o ABSOLUTE
    ../../microlib/init/entry.s              0x00000000   Number         0  entry2.o ABSOLUTE
    ../../microlib/init/entry.s              0x00000000   Number         0  entry7.o ABSOLUTE
    ../../microlib/longlong.c                0x00000000   Number         0  llshl.o ABSOLUTE
    ../../microlib/longlong.c                0x00000000   Number         0  llushr.o ABSOLUTE
    ../../microlib/longlong.c                0x00000000   Number         0  llsshr.o ABSOLUTE
    ../../microlib/malloc/malloc.c           0x00000000   Number         0  malloc.o ABSOLUTE
    ../../microlib/malloc/malloc.c           0x00000000   Number         0  mallocr.o ABSOLUTE
    ../../microlib/malloc/malloc.c           0x00000000   Number         0  malloca.o ABSOLUTE
    ../../microlib/malloc/malloc.c           0x00000000   Number         0  mallocra.o ABSOLUTE
    ../../microlib/malloc/mvars.c            0x00000000   Number         0  mvars.o ABSOLUTE
    ../../microlib/printf/printf.c           0x00000000   Number         0  printf6.o ABSOLUTE
    ../../microlib/printf/printf.c           0x00000000   Number         0  printf5.o ABSOLUTE
    ../../microlib/printf/printf.c           0x00000000   Number         0  printf4.o ABSOLUTE
    ../../microlib/printf/printf.c           0x00000000   Number         0  printf3.o ABSOLUTE
    ../../microlib/printf/printf.c           0x00000000   Number         0  printf2.o ABSOLUTE
    ../../microlib/printf/printf.c           0x00000000   Number         0  printf1.o ABSOLUTE
    ../../microlib/printf/printf.c           0x00000000   Number         0  printf0.o ABSOLUTE
    ../../microlib/printf/printf.c           0x00000000   Number         0  printfb.o ABSOLUTE
    ../../microlib/printf/printf.c           0x00000000   Number         0  printfa.o ABSOLUTE
    ../../microlib/printf/printf.c           0x00000000   Number         0  printf8.o ABSOLUTE
    ../../microlib/printf/printf.c           0x00000000   Number         0  printf7.o ABSOLUTE
    ../../microlib/printf/stubs.s            0x00000000   Number         0  stubs.o ABSOLUTE
    ../../microlib/stdlib/rand.c             0x00000000   Number         0  rand.o ABSOLUTE
    ../../microlib/string/memchr.c           0x00000000   Number         0  memchr.o ABSOLUTE
    ../../microlib/string/memcmp.c           0x00000000   Number         0  memcmp.o ABSOLUTE
    ../../microlib/string/memcpy.c           0x00000000   Number         0  memmovec.o ABSOLUTE
    ../../microlib/string/memcpy.c           0x00000000   Number         0  memmoveb.o ABSOLUTE
    ../../microlib/string/memcpy.c           0x00000000   Number         0  memcpyc.o ABSOLUTE
    ../../microlib/string/memcpy.c           0x00000000   Number         0  memcpyb.o ABSOLUTE
    ../../microlib/string/memcpy.c           0x00000000   Number         0  memcpy.o ABSOLUTE
    ../../microlib/string/memcpy.c           0x00000000   Number         0  memcpya.o ABSOLUTE
    ../../microlib/string/memcpy.c           0x00000000   Number         0  memmove.o ABSOLUTE
    ../../microlib/string/memcpy.c           0x00000000   Number         0  memmovea.o ABSOLUTE
    ../../microlib/string/memset.c           0x00000000   Number         0  memset.o ABSOLUTE
    ../../microlib/string/memset.c           0x00000000   Number         0  memseta.o ABSOLUTE
    ../../microlib/string/strcasecmp.c       0x00000000   Number         0  strcasecmp.o ABSOLUTE
    ../../microlib/string/strcat.c           0x00000000   Number         0  strcat.o ABSOLUTE
    ../../microlib/string/strchr.c           0x00000000   Number         0  strchr.o ABSOLUTE
    ../../microlib/string/strcmp.c           0x00000000   Number         0  strcmp.o ABSOLUTE
    ../../microlib/string/strcpy.c           0x00000000   Number         0  strcpy.o ABSOLUTE
    ../../microlib/string/strerror.c         0x00000000   Number         0  strerror.o ABSOLUTE
    ../../microlib/string/strlen.c           0x00000000   Number         0  strlen.o ABSOLUTE
    ../../microlib/string/strncat.c          0x00000000   Number         0  strncat.o ABSOLUTE
    ../../microlib/string/strncmp.c          0x00000000   Number         0  strncmp.o ABSOLUTE
    ../../microlib/string/strncpy.c          0x00000000   Number         0  strncpy.o ABSOLUTE
    ../../microlib/string/strstr.c           0x00000000   Number         0  strstr.o ABSOLUTE
    ../../microlib/string/strtok.c           0x00000000   Number         0  strtok.o ABSOLUTE
    ../../microlib/string/strtok.c           0x00000000   Number         0  strtok_r.o ABSOLUTE
    ../../microlib/stubs.s                   0x00000000   Number         0  iusefp.o ABSOLUTE
    ../../microlib/time/localtime.c          0x00000000   Number         0  localtime_w.o ABSOLUTE
    ../../microlib/time/localtime.c          0x00000000   Number         0  localtime_r.o ABSOLUTE
    ../../microlib/time/localtime.c          0x00000000   Number         0  localtime_i.o ABSOLUTE
    ../../poly.c                             0x00000000   Number         0  poly.o ABSOLUTE
    ../../pow.c                              0x00000000   Number         0  pow.o ABSOLUTE
    ../../pow.c                              0x00000000   Number         0  pow_x.o ABSOLUTE
    ../../qnan.c                             0x00000000   Number         0  qnan.o ABSOLUTE
    ../../scanf.c                            0x00000000   Number         0  __strtoll.o ABSOLUTE
    ../../scanf.c                            0x00000000   Number         0  strtol.o ABSOLUTE
    ../../scanf.c                            0x00000000   Number         0  strtod.o ABSOLUTE
    ../../scanf.c                            0x00000000   Number         0  _sgetc.o ABSOLUTE
    ../../scanf.c                            0x00000000   Number         0  atol.o ABSOLUTE
    ../../scanf.c                            0x00000000   Number         0  scanf_char.o ABSOLUTE
    ../../scanf.c                            0x00000000   Number         0  __0sscanf.o ABSOLUTE
    ../../scanf.c                            0x00000000   Number         0  _scanf_str.o ABSOLUTE
    ../../scanf.c                            0x00000000   Number         0  scanf_fp.o ABSOLUTE
    ../../scanf.c                            0x00000000   Number         0  atoll.o ABSOLUTE
    ../../scanf.c                            0x00000000   Number         0  _scanf_longlong.o ABSOLUTE
    ../../scanf.c                            0x00000000   Number         0  atoi.o ABSOLUTE
    ../../scanf.c                            0x00000000   Number         0  _chval.o ABSOLUTE
    ../../scanf.c                            0x00000000   Number         0  _scanf_int.o ABSOLUTE
    ../../scanf.c                            0x00000000   Number         0  _strtoull.o ABSOLUTE
    ../../scanf.c                            0x00000000   Number         0  _strtoul.o ABSOLUTE
    ../../scanf.c                            0x00000000   Number         0  _scanf.o ABSOLUTE
    ../../sqrt.c                             0x00000000   Number         0  sqrt.o ABSOLUTE
    ../../sqrt.c                             0x00000000   Number         0  sqrt_x.o ABSOLUTE
    ..\..\..\App\main.c                      0x00000000   Number         0  main.o ABSOLUTE
    ..\..\..\Demo\console\wm_demo_console_task.c 0x00000000   Number         0  wm_demo_console_task.o ABSOLUTE
    ..\..\..\Demo\wm_7816_demo.c             0x00000000   Number         0  wm_7816_demo.o ABSOLUTE
    ..\..\..\Demo\wm_adc_demo.c              0x00000000   Number         0  wm_adc_demo.o ABSOLUTE
    ..\..\..\Demo\wm_apsta_demo.c            0x00000000   Number         0  wm_apsta_demo.o ABSOLUTE
    ..\..\..\Demo\wm_connect_net_demo.c      0x00000000   Number         0  wm_connect_net_demo.o ABSOLUTE
    ..\..\..\Demo\wm_crypt_hard_demo.c       0x00000000   Number         0  wm_crypt_hard_demo.o ABSOLUTE
    ..\..\..\Demo\wm_flash_demo.c            0x00000000   Number         0  wm_flash_demo.o ABSOLUTE
    ..\..\..\Demo\wm_gpio_demo.c             0x00000000   Number         0  wm_gpio_demo.o ABSOLUTE
    ..\..\..\Demo\wm_http_demo.c             0x00000000   Number         0  wm_http_demo.o ABSOLUTE
    ..\..\..\Demo\wm_i2c_demo.c              0x00000000   Number         0  wm_i2c_demo.o ABSOLUTE
    ..\..\..\Demo\wm_i2s_demo.c              0x00000000   Number         0  wm_i2s_demo.o ABSOLUTE
    ..\..\..\Demo\wm_master_spi_demo.c       0x00000000   Number         0  wm_master_spi_demo.o ABSOLUTE
    ..\..\..\Demo\wm_ntp_demo.c              0x00000000   Number         0  wm_ntp_demo.o ABSOLUTE
    ..\..\..\Demo\wm_pmu_demo.c              0x00000000   Number         0  wm_pmu_demo.o ABSOLUTE
    ..\..\..\Demo\wm_pwm_demo.c              0x00000000   Number         0  wm_pwm_demo.o ABSOLUTE
    ..\..\..\Demo\wm_rsa_demo.c              0x00000000   Number         0  wm_rsa_demo.o ABSOLUTE
    ..\..\..\Demo\wm_rtc_demo.c              0x00000000   Number         0  wm_rtc_demo.o ABSOLUTE
    ..\..\..\Demo\wm_scan_demo.c             0x00000000   Number         0  wm_scan_demo.o ABSOLUTE
    ..\..\..\Demo\wm_slave_spi_demo.c        0x00000000   Number         0  wm_slave_spi_demo.o ABSOLUTE
    ..\..\..\Demo\wm_socket_client_demo.c    0x00000000   Number         0  wm_socket_client_demo.o ABSOLUTE
    ..\..\..\Demo\wm_socket_server_demo.c    0x00000000   Number         0  wm_socket_server_demo.o ABSOLUTE
    ..\..\..\Demo\wm_softap_demo.c           0x00000000   Number         0  wm_softap_demo.o ABSOLUTE
    ..\..\..\Demo\wm_ssl_server_demo.c       0x00000000   Number         0  wm_ssl_server_demo.o ABSOLUTE
    ..\..\..\Demo\wm_timer_demo.c            0x00000000   Number         0  wm_timer_demo.o ABSOLUTE
    ..\..\..\Demo\wm_uart_demo.c             0x00000000   Number         0  wm_uart_demo.o ABSOLUTE
    ..\..\..\Demo\wm_udp_demo.c              0x00000000   Number         0  wm_udp_demo.o ABSOLUTE
    ..\..\..\Demo\wm_websockets_demo.c       0x00000000   Number         0  wm_websockets_demo.o ABSOLUTE
    ..\..\..\Demo\wm_wps_demo.c              0x00000000   Number         0  wm_wps_demo.o ABSOLUTE
    ..\..\..\Platform\Boot\armcc\misc.c      0x00000000   Number         0  misc.o ABSOLUTE
    ..\..\..\Platform\Boot\armcc\retarget.c  0x00000000   Number         0  retarget.o ABSOLUTE
    ..\..\..\Platform\Boot\armcc\startup_venus.s 0x00000000   Number         0  startup_venus.o ABSOLUTE
    ..\..\..\Platform\Common\wm_common.c     0x00000000   Number         0  wm_common.o ABSOLUTE
    ..\..\..\Platform\Drivers\wm_driver.c    0x00000000   Number         0  wm_driver.o ABSOLUTE
    ..\..\..\Platform\Sys\tls_sys.c          0x00000000   Number         0  tls_sys.o ABSOLUTE
    ..\..\..\Platform\Sys\wm_main.c          0x00000000   Number         0  wm_main.o ABSOLUTE
    ..\..\..\Src\App\OTA\wm_http_fwup.c      0x00000000   Number         0  wm_http_fwup.o ABSOLUTE
    ..\..\..\Src\App\OTA\wm_socket_fwup.c    0x00000000   Number         0  wm_socket_fwup.o ABSOLUTE
    ..\..\..\Src\App\cJSON\cJSON.c           0x00000000   Number         0  cjson.o ABSOLUTE
    ..\..\..\Src\App\dhcpserver\dhcp_server.c 0x00000000   Number         0  dhcp_server.o ABSOLUTE
    ..\..\..\Src\App\dnsserver\dns_server.c  0x00000000   Number         0  dns_server.o ABSOLUTE
    ..\..\..\Src\App\httpclient\wm_http_compile.c 0x00000000   Number         0  wm_http_compile.o ABSOLUTE
    ..\..\..\Src\App\iperf\iperf_api.c       0x00000000   Number         0  iperf_api.o ABSOLUTE
    ..\..\..\Src\App\iperf\iperf_client_api.c 0x00000000   Number         0  iperf_client_api.o ABSOLUTE
    ..\..\..\Src\App\iperf\iperf_error.c     0x00000000   Number         0  iperf_error.o ABSOLUTE
    ..\..\..\Src\App\iperf\iperf_locale.c    0x00000000   Number         0  iperf_locale.o ABSOLUTE
    ..\..\..\Src\App\iperf\iperf_main.c      0x00000000   Number         0  iperf_main.o ABSOLUTE
    ..\..\..\Src\App\iperf\iperf_net.c       0x00000000   Number         0  iperf_net.o ABSOLUTE
    ..\..\..\Src\App\iperf\iperf_server_api.c 0x00000000   Number         0  iperf_server_api.o ABSOLUTE
    ..\..\..\Src\App\iperf\iperf_tcp.c       0x00000000   Number         0  iperf_tcp.o ABSOLUTE
    ..\..\..\Src\App\iperf\iperf_timer.c     0x00000000   Number         0  iperf_timer.o ABSOLUTE
    ..\..\..\Src\App\iperf\iperf_udp.c       0x00000000   Number         0  iperf_udp.o ABSOLUTE
    ..\..\..\Src\App\iperf\iperf_units.c     0x00000000   Number         0  iperf_units.o ABSOLUTE
    ..\..\..\Src\App\iperf\iperf_util.c      0x00000000   Number         0  iperf_util.o ABSOLUTE
    ..\..\..\Src\App\iperf\tcp_info.c        0x00000000   Number         0  tcp_info.o ABSOLUTE
    ..\..\..\Src\App\iperf\tcp_window_size.c 0x00000000   Number         0  tcp_window_size.o ABSOLUTE
    ..\..\..\Src\App\iperf\wm_perf.c         0x00000000   Number         0  wm_perf.o ABSOLUTE
    ..\..\..\Src\App\libcoap\address.c       0x00000000   Number         0  address.o ABSOLUTE
    ..\..\..\Src\App\libcoap\async.c         0x00000000   Number         0  async.o ABSOLUTE
    ..\..\..\Src\App\libcoap\block.c         0x00000000   Number         0  block.o ABSOLUTE
    ..\..\..\Src\App\libcoap\coap_io_lwip.c  0x00000000   Number         0  coap_io_lwip.o ABSOLUTE
    ..\..\..\Src\App\libcoap\coap_time.c     0x00000000   Number         0  coap_time.o ABSOLUTE
    ..\..\..\Src\App\libcoap\debug.c         0x00000000   Number         0  debug.o ABSOLUTE
    ..\..\..\Src\App\libcoap\encode.c        0x00000000   Number         0  encode.o ABSOLUTE
    ..\..\..\Src\App\libcoap\hashkey.c       0x00000000   Number         0  hashkey.o ABSOLUTE
    ..\..\..\Src\App\libcoap\mem_libcoap.c   0x00000000   Number         0  mem_libcoap.o ABSOLUTE
    ..\..\..\Src\App\libcoap\net.c           0x00000000   Number         0  net.o ABSOLUTE
    ..\..\..\Src\App\libcoap\option.c        0x00000000   Number         0  option.o ABSOLUTE
    ..\..\..\Src\App\libcoap\pdu.c           0x00000000   Number         0  pdu.o ABSOLUTE
    ..\..\..\Src\App\libcoap\resource.c      0x00000000   Number         0  resource.o ABSOLUTE
    ..\..\..\Src\App\libcoap\str.c           0x00000000   Number         0  str.o ABSOLUTE
    ..\..\..\Src\App\libcoap\subscribe.c     0x00000000   Number         0  subscribe.o ABSOLUTE
    ..\..\..\Src\App\libcoap\uri_libcoap.c   0x00000000   Number         0  uri_libcoap.o ABSOLUTE
    ..\..\..\Src\App\libwebsockets-2.1-stable\base64-decode.c 0x00000000   Number         0  base64-decode.o ABSOLUTE
    ..\..\..\Src\App\libwebsockets-2.1-stable\client-handshake.c 0x00000000   Number         0  client-handshake.o ABSOLUTE
    ..\..\..\Src\App\libwebsockets-2.1-stable\client-parser.c 0x00000000   Number         0  client-parser.o ABSOLUTE
    ..\..\..\Src\App\libwebsockets-2.1-stable\client.c 0x00000000   Number         0  client.o ABSOLUTE
    ..\..\..\Src\App\libwebsockets-2.1-stable\context.c 0x00000000   Number         0  context.o ABSOLUTE
    ..\..\..\Src\App\libwebsockets-2.1-stable\handshake.c 0x00000000   Number         0  handshake.o ABSOLUTE
    ..\..\..\Src\App\libwebsockets-2.1-stable\header.c 0x00000000   Number         0  header.o ABSOLUTE
    ..\..\..\Src\App\libwebsockets-2.1-stable\libwebsockets.c 0x00000000   Number         0  libwebsockets.o ABSOLUTE
    ..\..\..\Src\App\libwebsockets-2.1-stable\lws-plat-wm.c 0x00000000   Number         0  lws-plat-wm.o ABSOLUTE
    ..\..\..\Src\App\libwebsockets-2.1-stable\output.c 0x00000000   Number         0  output.o ABSOLUTE
    ..\..\..\Src\App\libwebsockets-2.1-stable\parsers.c 0x00000000   Number         0  parsers.o ABSOLUTE
    ..\..\..\Src\App\libwebsockets-2.1-stable\pollfd.c 0x00000000   Number         0  pollfd.o ABSOLUTE
    ..\..\..\Src\App\libwebsockets-2.1-stable\service.c 0x00000000   Number         0  service.o ABSOLUTE
    ..\..\..\Src\App\libwebsockets-2.1-stable\ssl-client.c 0x00000000   Number         0  ssl-client.o ABSOLUTE
    ..\..\..\Src\App\libwebsockets-2.1-stable\ssl.c 0x00000000   Number         0  ssl.o ABSOLUTE
    ..\..\..\Src\App\mDNS\mDNSCore\mDNS.c    0x00000000   Number         0  mdns.o ABSOLUTE
    ..\..\..\Src\App\mDNS\mDNSPosix\mDNSPosix.c 0x00000000   Number         0  mdnsposix.o ABSOLUTE
    ..\..\..\Src\App\matrixssl\wm_matrixssl_compile.c 0x00000000   Number         0  wm_matrixssl_compile.o ABSOLUTE
    ..\..\..\Src\App\mqtt\libemqtt.c         0x00000000   Number         0  libemqtt.o ABSOLUTE
    ..\..\..\Src\App\ntp\ntp_client.c        0x00000000   Number         0  ntp_client.o ABSOLUTE
    ..\..\..\Src\App\oneshotconfig\wm_oneshot_airkiss.c 0x00000000   Number         0  wm_oneshot_airkiss.o ABSOLUTE
    ..\..\..\Src\App\oneshotconfig\wm_oneshot_lsd.c 0x00000000   Number         0  wm_oneshot_lsd.o ABSOLUTE
    ..\..\..\Src\App\oneshotconfig\wm_wifi_oneshot.c 0x00000000   Number         0  wm_wifi_oneshot.o ABSOLUTE
    ..\..\..\Src\App\ping\ping.c             0x00000000   Number         0  ping.o ABSOLUTE
    ..\..\..\Src\App\polarssl\library\arc4.c 0x00000000   Number         0  arc4.o ABSOLUTE
    ..\..\..\Src\App\polarssl\library\asn1parse.c 0x00000000   Number         0  asn1parse.o ABSOLUTE
    ..\..\..\Src\App\polarssl\library\base64.c 0x00000000   Number         0  base64.o ABSOLUTE
    ..\..\..\Src\App\polarssl\library\cipher.c 0x00000000   Number         0  cipher.o ABSOLUTE
    ..\..\..\Src\App\polarssl\library\cipher_wrap.c 0x00000000   Number         0  cipher_wrap.o ABSOLUTE
    ..\..\..\Src\App\polarssl\library\error.c 0x00000000   Number         0  error.o ABSOLUTE
    ..\..\..\Src\App\polarssl\library\md.c   0x00000000   Number         0  md.o ABSOLUTE
    ..\..\..\Src\App\polarssl\library\md_wrap.c 0x00000000   Number         0  md_wrap.o ABSOLUTE
    ..\..\..\Src\App\polarssl\library\pem.c  0x00000000   Number         0  pem.o ABSOLUTE
    ..\..\..\Src\App\polarssl\library\polarssl_bignum.c 0x00000000   Number         0  polarssl_bignum.o ABSOLUTE
    ..\..\..\Src\App\polarssl\library\polarssl_debug.c 0x00000000   Number         0  polarssl_debug.o ABSOLUTE
    ..\..\..\Src\App\polarssl\library\polarssl_md5.c 0x00000000   Number         0  polarssl_md5.o ABSOLUTE
    ..\..\..\Src\App\polarssl\library\polarssl_sha1.c 0x00000000   Number         0  polarssl_sha1.o ABSOLUTE
    ..\..\..\Src\App\polarssl\library\rsa.c  0x00000000   Number         0  rsa.o ABSOLUTE
    ..\..\..\Src\App\polarssl\library\ssl_cli.c 0x00000000   Number         0  ssl_cli.o ABSOLUTE
    ..\..\..\Src\App\polarssl\library\ssl_tls.c 0x00000000   Number         0  ssl_tls.o ABSOLUTE
    ..\..\..\Src\App\polarssl\library\x509parse.c 0x00000000   Number         0  x509parse.o ABSOLUTE
    ..\..\..\Src\App\sslserver\wm_ssl_server.c 0x00000000   Number         0  wm_ssl_server.o ABSOLUTE
    ..\..\..\Src\App\web\fs.c                0x00000000   Number         0  fs.o ABSOLUTE
    ..\..\..\Src\App\web\httpd.c             0x00000000   Number         0  httpd.o ABSOLUTE
    ..\..\..\Src\App\web\web.c               0x00000000   Number         0  web.o ABSOLUTE
    ..\..\..\Src\App\wm_atcmd\wm_cmd.c       0x00000000   Number         0  wm_cmd.o ABSOLUTE
    ..\..\..\Src\Network\lwip2.0.3.c         0x00000000   Number         0  lwip2.0.3.o ABSOLUTE
    ..\..\..\Src\OS\RTOS\wm_rtos.c           0x00000000   Number         0  wm_rtos.o ABSOLUTE
    ..\\..\\..\\Src\\OS\\RTOS\\wm_rtos.c     0x00000000   Number         0  wm_rtos.o ABSOLUTE
    Api/wm_wifi_api.c                        0x00000000   Number         0  wm_wifi_api.o ABSOLUTE
    Api/wm_wifi_oneshot_api.c                0x00000000   Number         0  wm_wifi_oneshot_api.o ABSOLUTE
    Api\wm_wifi_api.c                        0x00000000   Number         0  wm_wifi_api.o ABSOLUTE
    Driver/tls_rf_fft.c                      0x00000000   Number         0  tls_rf_fft.o ABSOLUTE
    Driver/tls_rf_tx_iq.c                    0x00000000   Number         0  tls_rf_tx_iq.o ABSOLUTE
    Driver/tls_wl_bss.c                      0x00000000   Number         0  tls_wl_bss.o ABSOLUTE
    Driver/tls_wl_core.c                     0x00000000   Number         0  tls_wl_core.o ABSOLUTE
    Driver/tls_wl_hw.c                       0x00000000   Number         0  tls_wl_hw.o ABSOLUTE
    Driver/tls_wl_if.c                       0x00000000   Number         0  tls_wl_if.o ABSOLUTE
    Driver/tls_wl_key.c                      0x00000000   Number         0  tls_wl_key.o ABSOLUTE
    Driver/tls_wl_mgmt.c                     0x00000000   Number         0  tls_wl_mgmt.o ABSOLUTE
    Driver/tls_wl_mlme.c                     0x00000000   Number         0  tls_wl_mlme.o ABSOLUTE
    Driver/tls_wl_phy.c                      0x00000000   Number         0  tls_wl_phy.o ABSOLUTE
    Driver/tls_wl_rc.c                       0x00000000   Number         0  tls_wl_rc.o ABSOLUTE
    Driver/tls_wl_rf.c                       0x00000000   Number         0  tls_wl_rf.o ABSOLUTE
    Driver/tls_wl_rx.c                       0x00000000   Number         0  tls_wl_rx.o ABSOLUTE
    Driver/tls_wl_scan.c                     0x00000000   Number         0  tls_wl_scan.o ABSOLUTE
    Driver/tls_wl_sta_info.c                 0x00000000   Number         0  tls_wl_sta_info.o ABSOLUTE
    Driver/tls_wl_tx.c                       0x00000000   Number         0  tls_wl_tx.o ABSOLUTE
    Driver/tls_wl_util.c                     0x00000000   Number         0  tls_wl_util.o ABSOLUTE
    Driver/tx_lo_cal.c                       0x00000000   Number         0  tx_lo_cal.o ABSOLUTE
    Driver\tls_rf_fft.c                      0x00000000   Number         0  tls_rf_fft.o ABSOLUTE
    Driver\tls_rf_tx_iq.c                    0x00000000   Number         0  tls_rf_tx_iq.o ABSOLUTE
    Driver\tls_wl_core.c                     0x00000000   Number         0  tls_wl_core.o ABSOLUTE
    Driver\tls_wl_hw.c                       0x00000000   Number         0  tls_wl_hw.o ABSOLUTE
    Driver\tls_wl_if.c                       0x00000000   Number         0  tls_wl_if.o ABSOLUTE
    Driver\tls_wl_mgmt.c                     0x00000000   Number         0  tls_wl_mgmt.o ABSOLUTE
    Driver\tls_wl_mlme.c                     0x00000000   Number         0  tls_wl_mlme.o ABSOLUTE
    Driver\tls_wl_phy.c                      0x00000000   Number         0  tls_wl_phy.o ABSOLUTE
    Driver\tls_wl_rc.c                       0x00000000   Number         0  tls_wl_rc.o ABSOLUTE
    Driver\tls_wl_rf.c                       0x00000000   Number         0  tls_wl_rf.o ABSOLUTE
    Driver\tls_wl_rx.c                       0x00000000   Number         0  tls_wl_rx.o ABSOLUTE
    Driver\tls_wl_tx.c                       0x00000000   Number         0  tls_wl_tx.o ABSOLUTE
    Driver\tx_lo_cal.c                       0x00000000   Number         0  tx_lo_cal.o ABSOLUTE
    Supplicant/ap/ap.c                       0x00000000   Number         0  ap.o ABSOLUTE
    Supplicant/ap/ap_mlme.c                  0x00000000   Number         0  ap_mlme.o ABSOLUTE
    Supplicant/ap/beacon.c                   0x00000000   Number         0  beacon.o ABSOLUTE
    Supplicant/ap/hostapd.c                  0x00000000   Number         0  hostapd.o ABSOLUTE
    Supplicant/ap/hostapd_sta_info.c         0x00000000   Number         0  hostapd_sta_info.o ABSOLUTE
    Supplicant/ap/hostapd_wpa_driver.c       0x00000000   Number         0  hostapd_wpa_driver.o ABSOLUTE
    Supplicant/ap/ieee802_11.c               0x00000000   Number         0  ieee802_11.o ABSOLUTE
    Supplicant/ap/ieee802_1x.c               0x00000000   Number         0  ieee802_1x.o ABSOLUTE
    Supplicant/ap/tkip_countermeasures.c     0x00000000   Number         0  tkip_countermeasures.o ABSOLUTE
    Supplicant/ap/wpa_auth.c                 0x00000000   Number         0  wpa_auth.o ABSOLUTE
    Supplicant/ap/wpa_auth_glue.c            0x00000000   Number         0  wpa_auth_glue.o ABSOLUTE
    Supplicant/bss.c                         0x00000000   Number         0  bss.o ABSOLUTE
    Supplicant/common.c                      0x00000000   Number         0  common.o ABSOLUTE
    Supplicant/encdec/aesMatrix.c            0x00000000   Number         0  aesMatrix.o ABSOLUTE
    Supplicant/encdec/aes_unwrap.c           0x00000000   Number         0  aes_unwrap.o ABSOLUTE
    Supplicant/encdec/aes_wrap.c             0x00000000   Number         0  aes_wrap.o ABSOLUTE
    Supplicant/encdec/libtommath.c           0x00000000   Number         0  libtommath.o ABSOLUTE
    Supplicant/encdec/md5.c                  0x00000000   Number         0  md5.o ABSOLUTE
    Supplicant/encdec/random.c               0x00000000   Number         0  random.o ABSOLUTE
    Supplicant/encdec/rc4.c                  0x00000000   Number         0  rc4.o ABSOLUTE
    Supplicant/encdec/sha1-pbkdf2.c          0x00000000   Number         0  sha1-pbkdf2.o ABSOLUTE
    Supplicant/encdec/sha1.c                 0x00000000   Number         0  sha1.o ABSOLUTE
    Supplicant/encdec/sha1_internal.c        0x00000000   Number         0  sha1_internal.o ABSOLUTE
    Supplicant/encdec/sha256.c               0x00000000   Number         0  sha256.o ABSOLUTE
    Supplicant/events.c                      0x00000000   Number         0  events.o ABSOLUTE
    Supplicant/ieee802_11_common.c           0x00000000   Number         0  ieee802_11_common.o ABSOLUTE
    Supplicant/os_internal.c                 0x00000000   Number         0  os_internal.o ABSOLUTE
    Supplicant/scan.c                        0x00000000   Number         0  scan.o ABSOLUTE
    Supplicant/wpa.c                         0x00000000   Number         0  wpa.o ABSOLUTE
    Supplicant/wpa_auth_ie.c                 0x00000000   Number         0  wpa_auth_ie.o ABSOLUTE
    Supplicant/wpa_common.c                  0x00000000   Number         0  wpa_common.o ABSOLUTE
    Supplicant/wpa_driver.c                  0x00000000   Number         0  wpa_driver.o ABSOLUTE
    Supplicant/wpa_ie.c                      0x00000000   Number         0  wpa_ie.o ABSOLUTE
    Supplicant/wpa_supplicant.c              0x00000000   Number         0  wpa_supplicant.o ABSOLUTE
    Supplicant/wpabuf.c                      0x00000000   Number         0  wpabuf.o ABSOLUTE
    Supplicant/wpas_glue.c                   0x00000000   Number         0  wpas_glue.o ABSOLUTE
    airkiss.c                                0x00000000   Number         0  airkiss_log.o ABSOLUTE
    cdcmple.s                                0x00000000   Number         0  cdcmple.o ABSOLUTE
    cdrcmple.s                               0x00000000   Number         0  cdrcmple.o ABSOLUTE
    dc.s                                     0x00000000   Number         0  dc.o ABSOLUTE
    handlers.s                               0x00000000   Number         0  handlers.o ABSOLUTE
    init.s                                   0x00000000   Number         0  init.o ABSOLUTE
    litepoint/litepoint.c                    0x00000000   Number         0  litepoint.o ABSOLUTE
    litepoint\litepoint.c                    0x00000000   Number         0  litepoint.o ABSOLUTE
    RESET                                    0x08010100   Section      236  startup_venus.o(RESET)
    .ARM.Collect$$$$00000000                 0x080101ec   Section        0  entry.o(.ARM.Collect$$$$00000000)
    .ARM.Collect$$$$00000001                 0x080101ec   Section        4  entry2.o(.ARM.Collect$$$$00000001)
    .ARM.Collect$$$$00000004                 0x080101f0   Section        4  entry5.o(.ARM.Collect$$$$00000004)
    .ARM.Collect$$$$00000007                 0x080101f4   Section        8  entry7.o(.ARM.Collect$$$$00000007)
    .ARM.Collect$$$$00002712                 0x080101fc   Section        4  entry2.o(.ARM.Collect$$$$00002712)
    __lit__00000000                          0x080101fc   Data           4  entry2.o(.ARM.Collect$$$$00002712)
    .emb_text                                0x08010200   Section      150  wm_rtos.o(.emb_text)
    .text                                    0x08010298   Section        0  main.o(.text)
    .text                                    0x080102b0   Section       40  startup_venus.o(.text)
    .text                                    0x080102d8   Section        0  retarget.o(.text)
    IP2Str                                   0x080103dd   Thumb Code   198  retarget.o(.text)
    Mac2Str                                  0x080107c9   Thumb Code    78  retarget.o(.text)
    .text                                    0x08010818   Section        0  misc.o(.text)
    .text                                    0x080108e8   Section        0  wm_main.o(.text)
    .text                                    0x08010a84   Section        0  tls_sys.o(.text)
    tls_auto_reconnect_softap                0x08010a85   Thumb Code   182  tls_sys.o(.text)
    sys_net_status_changed                   0x08010cbb   Thumb Code   120  tls_sys.o(.text)
    sys_net_up                               0x08010d6b   Thumb Code   106  tls_sys.o(.text)
    sys_net2_down                            0x08010dd5   Thumb Code    18  tls_sys.o(.text)
    sys_net_down                             0x08010de7   Thumb Code    36  tls_sys.o(.text)
    .text                                    0x08010e24   Section        0  wm_driver.o(.text)
    tls_uart_tx_chars                        0x08011061   Thumb Code   152  wm_driver.o(.text)
    uart_handle_cts_change                   0x080111c3   Thumb Code   102  wm_driver.o(.text)
    uart_tx_finish_callback                  0x0801125f   Thumb Code    10  wm_driver.o(.text)
    timer_irq_callback                       0x08011ba9   Thumb Code    46  wm_driver.o(.text)
    spi_set_mode                             0x08011daf   Thumb Code    54  wm_driver.o(.text)
    SpiMasterInit                            0x08011df1   Thumb Code    74  wm_driver.o(.text)
    SpiDmaBlockWrite                         0x08011f07   Thumb Code   398  wm_driver.o(.text)
    SpiDmaBlockRead                          0x08012095   Thumb Code   364  wm_driver.o(.text)
    spi_complete                             0x08012221   Thumb Code     4  wm_driver.o(.text)
    spi_fill_txfifo                          0x08012225   Thumb Code   228  wm_driver.o(.text)
    spi_get_rxfifo                           0x08012309   Thumb Code   264  wm_driver.o(.text)
    spi_next_message                         0x08012411   Thumb Code    46  wm_driver.o(.text)
    spi_start_transfer                       0x0801243f   Thumb Code    74  wm_driver.o(.text)
    spi_continue_transfer                    0x08012489   Thumb Code   140  wm_driver.o(.text)
    spi_scheduler                            0x08012515   Thumb Code    96  wm_driver.o(.text)
    programSR                                0x08013d9f   Thumb Code    68  wm_driver.o(.text)
    dma_irq_proc                             0x08014679   Thumb Code   146  wm_driver.o(.text)
    adc_dma_isr_callbk                       0x0801481d   Thumb Code    20  wm_driver.o(.text)
    tls_fls_flush_sector                     0x080158e9   Thumb Code    68  wm_driver.o(.text)
    tls_spifls_drv_read                      0x08015f43   Thumb Code    34  wm_driver.o(.text)
    tls_spifls_drv_fast_read                 0x08015f65   Thumb Code     4  wm_driver.o(.text)
    tls_spifls_drv_page_write                0x08015f69   Thumb Code    64  wm_driver.o(.text)
    tls_spifls_drv_erase                     0x08015fa9   Thumb Code    64  wm_driver.o(.text)
    tls_spifls_drv_chip_erase                0x08015fe9   Thumb Code    42  wm_driver.o(.text)
    tls_spifls_drv_probe                     0x08016013   Thumb Code    58  wm_driver.o(.text)
    tls_spifls_drv_remove                    0x0801604d   Thumb Code     8  wm_driver.o(.text)
    NVIC_ClearPendingIRQ                     0x08016785   Thumb Code    24  wm_driver.o(.text)
    tls_bitband_write                        0x0801679d   Thumb Code    22  wm_driver.o(.text)
    tls_bitband_read                         0x080167b3   Thumb Code    22  wm_driver.o(.text)
    dl_list_add_tail                         0x080167c9   Thumb Code    16  wm_driver.o(.text)
    dl_list_del                              0x080167d9   Thumb Code    20  wm_driver.o(.text)
    dl_list_empty                            0x080167ed   Thumb Code    14  wm_driver.o(.text)
    tls_uart_tx_enable                       0x080167fb   Thumb Code    12  wm_driver.o(.text)
    spi_set_endian                           0x08016807   Thumb Code    26  wm_driver.o(.text)
    spi_set_chipselect_mode                  0x08016821   Thumb Code    28  wm_driver.o(.text)
    spi_set_sclk                             0x0801683d   Thumb Code    40  wm_driver.o(.text)
    spi_get_status                           0x08016865   Thumb Code    40  wm_driver.o(.text)
    spi_message_init                         0x0801688d   Thumb Code    18  wm_driver.o(.text)
    spi_next_transfer                        0x0801689f   Thumb Code    24  wm_driver.o(.text)
    writeEnable                              0x080168b7   Thumb Code    12  wm_driver.o(.text)
    eraseSR                                  0x080168c3   Thumb Code    30  wm_driver.o(.text)
    programPage                              0x080168e1   Thumb Code    16  wm_driver.o(.text)
    eraseSector                              0x080168f1   Thumb Code    14  wm_driver.o(.text)
    getFlashDensity                          0x080168ff   Thumb Code    36  wm_driver.o(.text)
    waitForAdcDone                           0x08016923   Thumb Code    14  wm_driver.o(.text)
    tls_i2s_set_rxth                         0x08016931   Thumb Code    32  wm_driver.o(.text)
    tls_i2s_set_txth                         0x08016951   Thumb Code    26  wm_driver.o(.text)
    tls_i2s_int_config                       0x0801696b   Thumb Code    22  wm_driver.o(.text)
    tls_i2s_fill_txfifo                      0x08016981   Thumb Code   100  wm_driver.o(.text)
    tls_spifls_drv_write_enable              0x080169e5   Thumb Code    24  wm_driver.o(.text)
    tls_spifls_drv_wait_write_enable         0x080169fd   Thumb Code    44  wm_driver.o(.text)
    tls_spifls_drv_wait_flash_ready          0x08016a29   Thumb Code    42  wm_driver.o(.text)
    .text                                    0x08016a88   Section        0  wm_common.o(.text)
    fwup_scheduler                           0x08016c63   Thumb Code   694  wm_common.o(.text)
    task_thread                              0x0801760b   Thumb Code    92  wm_common.o(.text)
    _cal_crc32                               0x08017843   Thumb Code  1338  wm_common.o(.text)
    hd_sha1_compress                         0x0801847f   Thumb Code   102  wm_common.o(.text)
    hd_md5_compress                          0x0801865b   Thumb Code    94  wm_common.o(.text)
    rsaMulModRead                            0x080187c3   Thumb Code   114  wm_common.o(.text)
    rsaMulModWrite                           0x08018835   Thumb Code    82  wm_common.o(.text)
    parseGeneralNames                        0x080198d5   Thumb Code   586  wm_common.o(.text)
    getImplicitBitString                     0x0801a111   Thumb Code   156  wm_common.o(.text)
    getTimeValidity                          0x0801a1ad   Thumb Code   314  wm_common.o(.text)
    x509ConfirmSignature                     0x0801ab4f   Thumb Code   182  wm_common.o(.text)
    pstm_mul_comba_gen                       0x0801af5f   Thumb Code   406  wm_common.o(.text)
    deskey                                   0x0801bb85   Thumb Code   436  wm_common.o(.text)
    desfunc                                  0x0801bd39   Thumb Code   386  wm_common.o(.text)
    param_to_flash                           0x0801c21b   Thumb Code   878  wm_common.o(.text)
    dl_list_empty                            0x0801cdff   Thumb Code    14  wm_common.o(.text)
    tls_fwup_img_update_header               0x0801ce0d   Thumb Code   108  wm_common.o(.text)
    tls_fwup_request_async                   0x0801ce79   Thumb Code   104  wm_common.o(.text)
    NVIC_ClearPendingIRQ                     0x0801cee1   Thumb Code    24  wm_common.o(.text)
    rsaMonMulAB                              0x0801cef9   Thumb Code    20  wm_common.o(.text)
    rsaMonMulBD                              0x0801cf0d   Thumb Code    20  wm_common.o(.text)
    readRandomData                           0x0801cf21   Thumb Code    22  wm_common.o(.text)
    cookey                                   0x0801cf37   Thumb Code   126  wm_common.o(.text)
    .text                                    0x0801cfe0   Section        0  dhcp_server.o(.text)
    compare_ether_addr                       0x0801cfe1   Thumb Code    56  dhcp_server.o(.text)
    _CheckMacIsValid                         0x0801d019   Thumb Code    84  dhcp_server.o(.text)
    _DhcpTickHandle                          0x0801d06d   Thumb Code   116  dhcp_server.o(.text)
    _ClientTableLookup                       0x0801d0e1   Thumb Code   352  dhcp_server.o(.text)
    _DHCPAckGenAndSend                       0x0801d241   Thumb Code   292  dhcp_server.o(.text)
    _DHCPOfferGenAndSend                     0x0801d365   Thumb Code   298  dhcp_server.o(.text)
    _CleanClientHistory                      0x0801d48f   Thumb Code    54  dhcp_server.o(.text)
    _DHCPNakGenAndSend                       0x0801d793   Thumb Code   154  dhcp_server.o(.text)
    _DhcpClientSMEHandle                     0x0801d82d   Thumb Code   108  dhcp_server.o(.text)
    .text                                    0x0801d898   Section        0  dns_server.o(.text)
    _DNSAnswerGenAndSend                     0x0801d899   Thumb Code   246  dns_server.o(.text)
    _DNSNameErrGenAndSend                    0x0801db13   Thumb Code   160  dns_server.o(.text)
    .text                                    0x0801dbbc   Section        0  wm_wifi_oneshot.o(.text)
    oneshot_lsd_finish                       0x0801e22f   Thumb Code   136  wm_wifi_oneshot.o(.text)
    wifi_change_chanel                       0x0801eedf   Thumb Code     4  wm_wifi_oneshot.o(.text)
    .text                                    0x0801ef08   Section        0  wm_oneshot_airkiss.o(.text)
    oneshot_airkiss_finish                   0x0801ef83   Thumb Code   142  wm_oneshot_airkiss.o(.text)
    oneshot_airkiss_printf                   0x0801f01d   Thumb Code    68  wm_oneshot_airkiss.o(.text)
    .text                                    0x0801f124   Section        0  wm_oneshot_lsd.o(.text)
    lsd_ssid_bssid_crc_match                 0x0801f161   Thumb Code   148  wm_oneshot_lsd.o(.text)
    .text                                    0x0801f948   Section        0  wm_cmd.o(.text)
    ResetTimerProc                           0x0801fa0d   Thumb Code     4  wm_cmd.o(.text)
    alloc_recvmit                            0x08023e41   Thumb Code    92  wm_cmd.o(.text)
    free_recvmit                             0x08023e9d   Thumb Code    38  wm_cmd.o(.text)
    hostif_default_socket_create_tmr         0x08023f2f   Thumb Code    64  wm_cmd.o(.text)
    hostif_socket_rpt                        0x08023f6f   Thumb Code    90  wm_cmd.o(.text)
    hostif_default_socket_state_changed      0x08023fc9   Thumb Code    20  wm_cmd.o(.text)
    hostif_default_socket_err                0x08023fdd   Thumb Code    46  wm_cmd.o(.text)
    hostif_socket_recv                       0x0802405b   Thumb Code   104  wm_cmd.o(.text)
    hostif_default_socket_setup              0x08024163   Thumb Code    18  wm_cmd.o(.text)
    hostif_socket_state_changed_ATCMD        0x08024175   Thumb Code    76  wm_cmd.o(.text)
    hostif_socket_state_changed_RICMD        0x080241c1   Thumb Code    28  wm_cmd.o(.text)
    tls_hostif_net_status_changed            0x0802426b   Thumb Code   282  wm_cmd.o(.text)
    ping_proc                                0x08025831   Thumb Code    72  wm_cmd.o(.text)
    hspi_tx                                  0x080258b5   Thumb Code   130  wm_cmd.o(.text)
    hspi_fwup_rsp                            0x0802593d   Thumb Code    92  wm_cmd.o(.text)
    hspi_rx_data                             0x08025999   Thumb Code   158  wm_cmd.o(.text)
    hspi_rx_cmd                              0x08025a37   Thumb Code    42  wm_cmd.o(.text)
    tls_hspi_rx_cmd_cb                       0x08025a61   Thumb Code    24  wm_cmd.o(.text)
    tls_hspi_rx_data_cb                      0x08025a79   Thumb Code    24  wm_cmd.o(.text)
    tls_hspi_tx_data_cb                      0x08025a91   Thumb Code     4  wm_cmd.o(.text)
    hspi_send_tx_msg                         0x08025a95   Thumb Code    78  wm_cmd.o(.text)
    uart_send_tx_msg                         0x08025bdb   Thumb Code   148  wm_cmd.o(.text)
    uart_get_uart1_port                      0x08025c6f   Thumb Code    10  wm_cmd.o(.text)
    uart_set_uart1_mode                      0x08025c79   Thumb Code    26  wm_cmd.o(.text)
    uart_set_uart0_mode                      0x08025c93   Thumb Code    26  wm_cmd.o(.text)
    uart_set_uart1_sock_param                0x08025cad   Thumb Code    10  wm_cmd.o(.text)
    uart_fwup_rsp                            0x08025eed   Thumb Code    64  wm_cmd.o(.text)
    find_atcmd_eol                           0x08025fdd   Thumb Code    60  wm_cmd.o(.text)
    parse_atcmd_eol                          0x08026019   Thumb Code   100  wm_cmd.o(.text)
    tls_uart0_task_rx_cb                     0x0802607d   Thumb Code    60  wm_cmd.o(.text)
    parse_atcmd_line                         0x080260b9   Thumb Code   420  wm_cmd.o(.text)
    get_unaligned_le32                       0x08026507   Thumb Code    10  wm_cmd.o(.text)
    put_unaligned_le16                       0x08026511   Thumb Code     8  wm_cmd.o(.text)
    put_unaligned_be16                       0x08026519   Thumb Code     8  wm_cmd.o(.text)
    hostif_default_socket_stop_tmr           0x08026521   Thumb Code    22  wm_cmd.o(.text)
    atcmd_lpinit                             0x08026537   Thumb Code    16  wm_cmd.o(.text)
    hspi_socket_recv                         0x08026547   Thumb Code   184  wm_cmd.o(.text)
    uart_tx_socket_finish_callback           0x080265ff   Thumb Code    10  wm_cmd.o(.text)
    cache_tcp_recv                           0x08026609   Thumb Code   236  wm_cmd.o(.text)
    modify_atcmd_tail                        0x080266f5   Thumb Code    28  wm_cmd.o(.text)
    .text                                    0x08026710   Section        0  wm_rtos.o(.text)
    prvListTaskWithinSingleList1             0x08026bad   Thumb Code    58  wm_rtos.o(.text)
    prvUnlockQueue                           0x08026ee3   Thumb Code   222  wm_rtos.o(.text)
    prvAddCurrentTaskToDelayedList           0x08026ff1   Thumb Code    46  wm_rtos.o(.text)
    prvCopyDataToQueue                       0x080270e5   Thumb Code    90  wm_rtos.o(.text)
    prvCopyDataFromQueue                     0x080272eb   Thumb Code    40  wm_rtos.o(.text)
    prvCheckForValidListAndQueue             0x08027889   Thumb Code    56  wm_rtos.o(.text)
    prvListTaskWithinSingleList              0x08027acf   Thumb Code   126  wm_rtos.o(.text)
    prvInsertTimerInActiveList               0x08027c17   Thumb Code    54  wm_rtos.o(.text)
    prvSampleTimeNow                         0x08027c4d   Thumb Code    36  wm_rtos.o(.text)
    prvTimerTask                             0x08027ccd   Thumb Code    36  wm_rtos.o(.text)
    prvIdleTask                              0x08027d1d   Thumb Code    22  wm_rtos.o(.text)
    prvCheckDelayedList                      0x08028119   Thumb Code   128  wm_rtos.o(.text)
    usTaskCheckFreeStackSpace                0x08028271   Thumb Code    20  wm_rtos.o(.text)
    prvSwitchTimerLists                      0x08028285   Thumb Code    88  wm_rtos.o(.text)
    prvProcessReceivedCommands               0x080282dd   Thumb Code   164  wm_rtos.o(.text)
    prvProcessTimerOrBlockTask               0x08028381   Thumb Code   126  wm_rtos.o(.text)
    prvCheckTasksWaitingTermination          0x080283ff   Thumb Code    84  wm_rtos.o(.text)
    .text                                    0x0802845c   Section        0  lwip2.0.3.o(.text)
    free_socket                              0x0802851b   Thumb Code    52  lwip2.0.3.o(.text)
    err_tcp                                  0x080285d1   Thumb Code   200  lwip2.0.3.o(.text)
    ipfrag_free_pbuf_custom                  0x0802874b   Thumb Code    22  lwip2.0.3.o(.text)
    pbuf_free_ooseq_callback                 0x080287f3   Thumb Code    40  lwip2.0.3.o(.text)
    pbuf_pool_is_empty                       0x08028899   Thumb Code    54  lwip2.0.3.o(.text)
    icmp_send_response                       0x08028bbb   Thumb Code   126  lwip2.0.3.o(.text)
    pbuf_header_impl                         0x08028c3f   Thumb Code   118  lwip2.0.3.o(.text)
    tcp_input_delayed_close                  0x08029265   Thumb Code    58  lwip2.0.3.o(.text)
    tcp_create_segment                       0x080292b1   Thumb Code   152  lwip2.0.3.o(.text)
    tcp_close_shutdown_fin                   0x0802942d   Thumb Code    98  lwip2.0.3.o(.text)
    tcp_output_alloc_header                  0x08029549   Thumb Code    88  lwip2.0.3.o(.text)
    tcpip_tcp_timer                          0x08029add   Thumb Code    40  lwip2.0.3.o(.text)
    tcp_close_shutdown                       0x08029b29   Thumb Code   270  lwip2.0.3.o(.text)
    tcp_oos_insert_segment                   0x08029ebb   Thumb Code   110  lwip2.0.3.o(.text)
    tcp_receive                              0x08029fc3   Thumb Code  1596  lwip2.0.3.o(.text)
    tcp_getoptbyte                           0x0802a61f   Thumb Code    42  lwip2.0.3.o(.text)
    tcp_parseopt                             0x0802a649   Thumb Code   104  lwip2.0.3.o(.text)
    tcp_process                              0x0802a6b1   Thumb Code   890  lwip2.0.3.o(.text)
    tcp_kill_state                           0x0802aa37   Thumb Code    56  lwip2.0.3.o(.text)
    tcp_kill_timewait                        0x0802aa6f   Thumb Code    46  lwip2.0.3.o(.text)
    tcp_listen_input                         0x0802ab97   Thumb Code   258  lwip2.0.3.o(.text)
    ip_reass_chain_frag_into_datagram_and_validate 0x0802b2ad   Thumb Code   240  lwip2.0.3.o(.text)
    ip_reass_free_complete_datagram          0x0802b3a5   Thumb Code   110  lwip2.0.3.o(.text)
    ip_reass_remove_oldest_datagram          0x0802b413   Thumb Code   106  lwip2.0.3.o(.text)
    tcp_output_segment                       0x0802bbc7   Thumb Code   184  lwip2.0.3.o(.text)
    tcp_pbuf_prealloc                        0x0802be45   Thumb Code    74  lwip2.0.3.o(.text)
    lwip_netconn_do_writemore                0x0802c1ef   Thumb Code   316  lwip2.0.3.o(.text)
    poll_tcp                                 0x0802c32b   Thumb Code    92  lwip2.0.3.o(.text)
    sent_tcp                                 0x0802c38f   Thumb Code    80  lwip2.0.3.o(.text)
    lwip_netconn_do_close_internal           0x0802c44d   Thumb Code   332  lwip2.0.3.o(.text)
    netconn_drain                            0x0802c669   Thumb Code   156  lwip2.0.3.o(.text)
    alloc_socket                             0x0802c907   Thumb Code   102  lwip2.0.3.o(.text)
    get_socket                               0x0802ca4b   Thumb Code    34  lwip2.0.3.o(.text)
    tcp_new_port                             0x0802cb95   Thumb Code   116  lwip2.0.3.o(.text)
    igmp_send                                0x0802cfeb   Thumb Code   172  lwip2.0.3.o(.text)
    igmp_lookup_group                        0x0802d173   Thumb Code    62  lwip2.0.3.o(.text)
    recv_tcp                                 0x0802d37f   Thumb Code   112  lwip2.0.3.o(.text)
    setup_tcp                                0x0802d3ef   Thumb Code    44  lwip2.0.3.o(.text)
    lwip_netconn_do_connected                0x0802d41b   Thumb Code   114  lwip2.0.3.o(.text)
    lwip_getaddrname                         0x0802d7fb   Thumb Code   120  lwip2.0.3.o(.text)
    lwip_setsockopt_impl                     0x0802d87f   Thumb Code   548  lwip2.0.3.o(.text)
    lwip_setsockopt_callback                 0x0802daa3   Thumb Code    26  lwip2.0.3.o(.text)
    lwip_getsockopt_impl                     0x0802db5b   Thumb Code   540  lwip2.0.3.o(.text)
    lwip_getsockopt_callback                 0x0802dd77   Thumb Code    28  lwip2.0.3.o(.text)
    accept_function                          0x0802df0d   Thumb Code   188  lwip2.0.3.o(.text)
    tcp_accept_null                          0x0802dfc9   Thumb Code    16  lwip2.0.3.o(.text)
    event_callback                           0x0802e22f   Thumb Code   296  lwip2.0.3.o(.text)
    netconn_recv_data                        0x0802e3bd   Thumb Code   202  lwip2.0.3.o(.text)
    recv_udp                                 0x0802ed11   Thumb Code   114  lwip2.0.3.o(.text)
    recv_raw                                 0x0802eda7   Thumb Code   116  lwip2.0.3.o(.text)
    lwip_selscan                             0x0802ef43   Thumb Code   356  lwip2.0.3.o(.text)
    lwip_netconn_do_dns_found                0x0802f3fd   Thumb Code    26  lwip2.0.3.o(.text)
    dns_call_found                           0x0802f4df   Thumb Code   142  lwip2.0.3.o(.text)
    dns_send                                 0x0802f56d   Thumb Code   260  lwip2.0.3.o(.text)
    dns_check_entry                          0x0802f671   Thumb Code   190  lwip2.0.3.o(.text)
    dns_recv                                 0x0802f74f   Thumb Code   448  lwip2.0.3.o(.text)
    dns_enqueue                              0x0802f941   Thumb Code   304  lwip2.0.3.o(.text)
    compare_ether_addr                       0x0802fd11   Thumb Code    56  lwip2.0.3.o(.text)
    net_free_socket                          0x0802fd89   Thumb Code    94  lwip2.0.3.o(.text)
    net_alloc_socket                         0x0802fde7   Thumb Code   146  lwip2.0.3.o(.text)
    net_tcp_err_cb                           0x0802fe79   Thumb Code   112  lwip2.0.3.o(.text)
    net_tcp_poll_cb                          0x0802fee9   Thumb Code   254  lwip2.0.3.o(.text)
    net_tcp_close_connect                    0x0802ffe7   Thumb Code   150  lwip2.0.3.o(.text)
    raw_sk_free_pbuf_custom_fn               0x0803007d   Thumb Code    50  lwip2.0.3.o(.text)
    net_tcp_recv_cb                          0x080300af   Thumb Code   320  lwip2.0.3.o(.text)
    net_tcp_connect_cb                       0x080301ef   Thumb Code    92  lwip2.0.3.o(.text)
    net_tcp_accept_cb                        0x0803024b   Thumb Code   206  lwip2.0.3.o(.text)
    net_udp_recv_cb                          0x08030319   Thumb Code   118  lwip2.0.3.o(.text)
    net_tcp_start                            0x0803039b   Thumb Code   230  lwip2.0.3.o(.text)
    net_do_send                              0x08030481   Thumb Code    88  lwip2.0.3.o(.text)
    net_do_write                             0x080304d9   Thumb Code   164  lwip2.0.3.o(.text)
    do_create_connect                        0x0803057d   Thumb Code   166  lwip2.0.3.o(.text)
    do_close_connect                         0x08030623   Thumb Code   160  lwip2.0.3.o(.text)
    netconn_msg                              0x080308fd   Thumb Code    62  lwip2.0.3.o(.text)
    alg_timer                                0x08030bf7   Thumb Code    26  lwip2.0.3.o(.text)
    cyclic_timer                             0x08030c11   Thumb Code    24  lwip2.0.3.o(.text)
    etharp_raw                               0x08030d55   Thumb Code   144  lwip2.0.3.o(.text)
    netif_issue_reports                      0x08030deb   Thumb Code    48  lwip2.0.3.o(.text)
    dhcp_option_trailer                      0x08030e35   Thumb Code    44  lwip2.0.3.o(.text)
    dhcp_create_msg                          0x08030e61   Thumb Code   302  lwip2.0.3.o(.text)
    dhcp_discover                            0x08030f8f   Thumb Code   250  lwip2.0.3.o(.text)
    dhcp_option_long                         0x08031089   Thumb Code    66  lwip2.0.3.o(.text)
    dhcp_reboot                              0x080310cb   Thumb Code   262  lwip2.0.3.o(.text)
    etharp_free_entry                        0x08031267   Thumb Code    32  lwip2.0.3.o(.text)
    etharp_find_entry                        0x08031287   Thumb Code   230  lwip2.0.3.o(.text)
    netif_loop_output_ipv4                   0x08031599   Thumb Code     4  lwip2.0.3.o(.text)
    netif_loopif_init                        0x0803159d   Thumb Code    20  lwip2.0.3.o(.text)
    alg_napt_port_alloc                      0x08031c5f   Thumb Code   150  lwip2.0.3.o(.text)
    alg_tcpudphdr_chksum                     0x08031cf5   Thumb Code    52  lwip2.0.3.o(.text)
    alg_output                               0x08031d29   Thumb Code    64  lwip2.0.3.o(.text)
    alg_icmp_proc                            0x08031db3   Thumb Code   332  lwip2.0.3.o(.text)
    alg_tcp_proc                             0x08031eff   Thumb Code   396  lwip2.0.3.o(.text)
    alg_udp_proc                             0x0803208b   Thumb Code   500  lwip2.0.3.o(.text)
    alg_gre_proc                             0x0803227f   Thumb Code   152  lwip2.0.3.o(.text)
    dhcp_option_hostname                     0x08032477   Thumb Code    64  lwip2.0.3.o(.text)
    dhcp_select                              0x080324b7   Thumb Code   256  lwip2.0.3.o(.text)
    dhcp_bind                                0x080325b7   Thumb Code   216  lwip2.0.3.o(.text)
    dhcp_handle_ack                          0x0803268f   Thumb Code   132  lwip2.0.3.o(.text)
    dhcp_parse_reply                         0x08032713   Thumb Code   566  lwip2.0.3.o(.text)
    dhcp_recv                                0x08032949   Thumb Code   254  lwip2.0.3.o(.text)
    dhcp_inc_pcb_refcount                    0x08032a47   Thumb Code    72  lwip2.0.3.o(.text)
    dhcp_dec_pcb_refcount                    0x08032a8f   Thumb Code    32  lwip2.0.3.o(.text)
    dhcp_rebind                              0x08032b87   Thumb Code   234  lwip2.0.3.o(.text)
    etharp_output_to_arp_index               0x08033045   Thumb Code    90  lwip2.0.3.o(.text)
    low_level_output                         0x080333a1   Thumb Code    76  lwip2.0.3.o(.text)
    ethernetif_igmp_mac_filter               0x080333ed   Thumb Code    98  lwip2.0.3.o(.text)
    netif_status_changed                     0x080334f9   Thumb Code    82  lwip2.0.3.o(.text)
    netif_status_changed2                    0x0803354b   Thumb Code    46  lwip2.0.3.o(.text)
    wifi_status_changed                      0x08033579   Thumb Code    62  lwip2.0.3.o(.text)
    netifapi_do_netif_common                 0x080335b7   Thumb Code    24  lwip2.0.3.o(.text)
    netifapi_do_netif_add                    0x08033621   Thumb Code    32  lwip2.0.3.o(.text)
    tcpip_thread                             0x0803366d   Thumb Code   128  lwip2.0.3.o(.text)
    netifapi_do_netif_set_addr               0x0803380f   Thumb Code    14  lwip2.0.3.o(.text)
    pbuf_free_int                            0x080339e3   Thumb Code     4  lwip2.0.3.o(.text)
    do_memp_free_pool                        0x08033e47   Thumb Code    22  lwip2.0.3.o(.text)
    do_memp_malloc_pool                      0x08033e5d   Thumb Code    32  lwip2.0.3.o(.text)
    igmp_start_timer                         0x08033e7d   Thumb Code    38  lwip2.0.3.o(.text)
    igmp_delaying_member                     0x08033ea3   Thumb Code    34  lwip2.0.3.o(.text)
    tcp_timewait_input                       0x08033ec5   Thumb Code    92  lwip2.0.3.o(.text)
    ip_reass_dequeue_datagram                0x08033f21   Thumb Code    32  lwip2.0.3.o(.text)
    netconn_apimsg                           0x08033f41   Thumb Code    22  lwip2.0.3.o(.text)
    netconn_close_shutdown                   0x08033f57   Thumb Code    36  lwip2.0.3.o(.text)
    lwip_socket_drop_registered_memberships  0x08033f7b   Thumb Code    68  lwip2.0.3.o(.text)
    lwip_socket_unregister_membership        0x08033fbf   Thumb Code    84  lwip2.0.3.o(.text)
    tryget_socket                            0x08034013   Thumb Code    28  lwip2.0.3.o(.text)
    pcb_new                                  0x0803402f   Thumb Code   118  lwip2.0.3.o(.text)
    pbuf_skip_const                          0x080340a5   Thumb Code    24  lwip2.0.3.o(.text)
    dns_compare_name                         0x080340bd   Thumb Code   100  lwip2.0.3.o(.text)
    dns_alloc_pcb                            0x08034121   Thumb Code   162  lwip2.0.3.o(.text)
    dl_list_del                              0x080341c3   Thumb Code    20  lwip2.0.3.o(.text)
    net_send_event_to_hostif                 0x080341d7   Thumb Code    20  lwip2.0.3.o(.text)
    raw_sk_free_pbuf_custom                  0x080341eb   Thumb Code    10  lwip2.0.3.o(.text)
    alg_napt_table_check_4ic                 0x080341f5   Thumb Code    80  lwip2.0.3.o(.text)
    alg_napt_table_check_4udp                0x08034245   Thumb Code    80  lwip2.0.3.o(.text)
    alg_napt_table_check_4tcp                0x08034295   Thumb Code   118  lwip2.0.3.o(.text)
    etharp_request_dst                       0x0803430b   Thumb Code    36  lwip2.0.3.o(.text)
    dhcp_delete_msg                          0x0803432f   Thumb Code    22  lwip2.0.3.o(.text)
    dhcp_option_byte                         0x08034345   Thumb Code    16  lwip2.0.3.o(.text)
    dhcp_option                              0x08034355   Thumb Code    32  lwip2.0.3.o(.text)
    dhcp_option_short                        0x08034375   Thumb Code    34  lwip2.0.3.o(.text)
    dhcp_set_state                           0x08034397   Thumb Code    16  lwip2.0.3.o(.text)
    tcp_netif_ip_addr_changed_pcblist        0x080343a7   Thumb Code    36  lwip2.0.3.o(.text)
    inet_cksum_pseudo_partial_base           0x080343cb   Thumb Code   126  lwip2.0.3.o(.text)
    alg_napt_table_is_full                   0x08034449   Thumb Code    32  lwip2.0.3.o(.text)
    alg_napt_table_insert_4ic                0x08034469   Thumb Code   160  lwip2.0.3.o(.text)
    alg_hdr_16bitsum                         0x08034509   Thumb Code    28  lwip2.0.3.o(.text)
    alg_iphdr_chksum                         0x08034525   Thumb Code    22  lwip2.0.3.o(.text)
    low_level_input                          0x0803453b   Thumb Code    68  lwip2.0.3.o(.text)
    dhcp_timeout                             0x0803457f   Thumb Code   112  lwip2.0.3.o(.text)
    .text                                    0x080345fc   Section        0  wm_http_compile.o(.text)
    HTTPIntrnSessionReset                    0x0803469d   Thumb Code   156  wm_http_compile.o(.text)
    HTTPIntrnHeadersAdd                      0x080347a7   Thumb Code   136  wm_http_compile.o(.text)
    HTTPIntrnSend                            0x08034865   Thumb Code   244  wm_http_compile.o(.text)
    HTTPIntrnHeadersFind                     0x08034a69   Thumb Code   164  wm_http_compile.o(.text)
    HTTPIntrnHeadersRemove                   0x08034b0d   Thumb Code    66  wm_http_compile.o(.text)
    HTTPIntrnHeadersSend                     0x08034b4f   Thumb Code   422  wm_http_compile.o(.text)
    HTTPIntrnConnectionOpen                  0x08034db5   Thumb Code   362  wm_http_compile.o(.text)
    HTTPIntrnSetURL                          0x08034f53   Thumb Code   322  wm_http_compile.o(.text)
    HTTPIntrnHeadersParse                    0x080352c9   Thumb Code   674  wm_http_compile.o(.text)
    HTTPIntrnRecv                            0x0803556b   Thumb Code   330  wm_http_compile.o(.text)
    HTTPIntrnHeadersReceive                  0x080356b5   Thumb Code   114  wm_http_compile.o(.text)
    http_snd_req_local                       0x08035bd1   Thumb Code   304  wm_http_compile.o(.text)
    http_client_rx                           0x08035d01   Thumb Code   152  wm_http_compile.o(.text)
    HTTPIntrnSessionEvalTimeout              0x08035e8d   Thumb Code    36  wm_http_compile.o(.text)
    HTTPIntrnGetRemoteHeaders                0x08035eb1   Thumb Code   140  wm_http_compile.o(.text)
    HTTPIntrnGetRemoteChunkLength            0x08035f3d   Thumb Code   136  wm_http_compile.o(.text)
    .text                                    0x08035fe4   Section        0  ping.o(.text)
    ping_test_unpack                         0x08035fe5   Thumb Code   132  ping.o(.text)
    ping_test_init                           0x08036069   Thumb Code   130  ping.o(.text)
    ping_test_stat                           0x080360eb   Thumb Code    80  ping.o(.text)
    ping_test_task                           0x0803613b   Thumb Code    28  ping.o(.text)
    ping_test_stop_timeout                   0x08036163   Thumb Code     2  ping.o(.text)
    ping_test_abort_timeout                  0x08036165   Thumb Code     8  ping.o(.text)
    ping_test_run                            0x080361ed   Thumb Code   122  ping.o(.text)
    ping_test_recv                           0x08036267   Thumb Code   152  ping.o(.text)
    ping_test_send                           0x080362ff   Thumb Code    88  ping.o(.text)
    ping_test_pack                           0x08036357   Thumb Code   522  ping.o(.text)
    .text                                    0x08036560   Section        0  wm_matrixssl_compile.o(.text)
    csNullInit                               0x08036561   Thumb Code     4  wm_matrixssl_compile.o(.text)
    csArc4Init                               0x08036565   Thumb Code    60  wm_matrixssl_compile.o(.text)
    csNullEncrypt                            0x08036619   Thumb Code    20  wm_matrixssl_compile.o(.text)
    csNullDecrypt                            0x0803662d   Thumb Code    20  wm_matrixssl_compile.o(.text)
    csNullGenerateMac                        0x08036641   Thumb Code     4  wm_matrixssl_compile.o(.text)
    csNullVerifyMac                          0x08036645   Thumb Code     4  wm_matrixssl_compile.o(.text)
    csShaGenerateMac                         0x08036821   Thumb Code   120  wm_matrixssl_compile.o(.text)
    csShaVerifyMac                           0x08036899   Thumb Code   122  wm_matrixssl_compile.o(.text)
    csMd5GenerateMac                         0x08036a4b   Thumb Code    88  wm_matrixssl_compile.o(.text)
    csMd5VerifyMac                           0x08036aa3   Thumb Code    84  wm_matrixssl_compile.o(.text)
    pSha1                                    0x08036e7b   Thumb Code   370  wm_matrixssl_compile.o(.text)
    pMd5                                     0x08036fed   Thumb Code   212  wm_matrixssl_compile.o(.text)
    pSha2                                    0x08037143   Thumb Code   232  wm_matrixssl_compile.o(.text)
    tlsGenerateFinishedHash                  0x08037289   Thumb Code   176  wm_matrixssl_compile.o(.text)
    initSessionEntryChronList                0x0803747b   Thumb Code   278  wm_matrixssl_compile.o(.text)
    matrixSslLoadKeyMaterialMem              0x08037645   Thumb Code   232  wm_matrixssl_compile.o(.text)
    wildcardMatch                            0x08038445   Thumb Code    70  wm_matrixssl_compile.o(.text)
    encryptRecord                            0x08038615   Thumb Code   482  wm_matrixssl_compile.o(.text)
    writeRecordHeader                        0x0803882b   Thumb Code   370  wm_matrixssl_compile.o(.text)
    revertToDefaultBufsize                   0x080396b3   Thumb Code    90  wm_matrixssl_compile.o(.text)
    encryptFlight                            0x0803970d   Thumb Code   298  wm_matrixssl_compile.o(.text)
    postponeEncryptRecord                    0x08039837   Thumb Code   168  wm_matrixssl_compile.o(.text)
    writeFinished                            0x080398df   Thumb Code   154  wm_matrixssl_compile.o(.text)
    writeChangeCipherSpec                    0x08039979   Thumb Code   104  wm_matrixssl_compile.o(.text)
    createKeyBlock                           0x080399e1   Thumb Code   280  wm_matrixssl_compile.o(.text)
    writeClientKeyExchange                   0x08039d33   Thumb Code   252  wm_matrixssl_compile.o(.text)
    writeMultiRecordCertificate              0x08039e2f   Thumb Code   706  wm_matrixssl_compile.o(.text)
    writeCertificate                         0x0803a0f1   Thumb Code   328  wm_matrixssl_compile.o(.text)
    writeAlert                               0x0803a239   Thumb Code   168  wm_matrixssl_compile.o(.text)
    writeServerHello                         0x0803a2e1   Thumb Code   670  wm_matrixssl_compile.o(.text)
    parseSSLHandshake                        0x0803a9d7   Thumb Code  3718  wm_matrixssl_compile.o(.text)
    verifyReadKeys                           0x0803c92d   Thumb Code   104  wm_matrixssl_compile.o(.text)
    getTicketKeys                            0x0803c995   Thumb Code   162  wm_matrixssl_compile.o(.text)
    nowDoSkePka                              0x0803ca37   Thumb Code   132  wm_matrixssl_compile.o(.text)
    secureWriteAdditions                     0x0803cabb   Thumb Code    42  wm_matrixssl_compile.o(.text)
    writeNewSessionTicket                    0x0803cae5   Thumb Code   144  wm_matrixssl_compile.o(.text)
    writeServerHelloDone                     0x0803cb75   Thumb Code   114  wm_matrixssl_compile.o(.text)
    .text                                    0x0803cbe8   Section        0  wm_http_fwup.o(.text)
    .text                                    0x0803ced4   Section        0  wm_socket_fwup.o(.text)
    free_current_pack                        0x0803d001   Thumb Code    28  wm_socket_fwup.o(.text)
    .text                                    0x0803d040   Section        0  fs.o(.text)
    fs_free                                  0x0803d239   Thumb Code    38  fs.o(.text)
    .text                                    0x0803d268   Section        0  httpd.o(.text)
    conn_err                                 0x0803d269   Thumb Code    40  httpd.o(.text)
    close_conn                               0x0803d291   Thumb Code   100  httpd.o(.text)
    http_sent                                0x0803d2f5   Thumb Code    30  httpd.o(.text)
    send_data                                0x0803d313   Thumb Code   282  httpd.o(.text)
    http_poll                                0x0803d511   Thumb Code    82  httpd.o(.text)
    restart_tmr_handler                      0x0803d563   Thumb Code     4  httpd.o(.text)
    http_recv                                0x0803d7e7   Thumb Code   510  httpd.o(.text)
    http_accept                              0x0803d9e5   Thumb Code    76  httpd.o(.text)
    .text                                    0x0803db54   Section        0  web.o(.text)
    HtmlConvertURLStr                        0x0803dd1b   Thumb Code    66  web.o(.text)
    .text                                    0x0803e074   Section        0  airkiss_log.o(.text)
    __airkiss_recv_guide_field               0x0803e075   Thumb Code   410  airkiss_log.o(.text)
    __airkiss_recv                           0x0803e20f   Thumb Code  1488  airkiss_log.o(.text)
    __airkiss_crc8                           0x0803e899   Thumb Code    28  airkiss_log.o(.text)
    __airkiss_complete                       0x0803e8b5   Thumb Code    98  airkiss_log.o(.text)
    .text                                    0x0803ea34   Section        0  aesMatrix.o(.text)
    setup_mix                                0x0803ea35   Thumb Code    50  aesMatrix.o(.text)
    setup_mix2                               0x0803ea67   Thumb Code    68  aesMatrix.o(.text)
    .text                                    0x0803f2e8   Section        0  ap.o(.text)
    hostapd_alloc_ps_pkt                     0x0803f2e9   Thumb Code    72  ap.o(.text)
    hostapd_ap_destroy                       0x0803f3cd   Thumb Code    38  ap.o(.text)
    hostapd_config_defaults                  0x0803f3f3   Thumb Code   316  ap.o(.text)
    dl_list_del                              0x0803f775   Thumb Code    20  ap.o(.text)
    hostapd_send_all_pkt2sta                 0x0803f789   Thumb Code   146  ap.o(.text)
    hostapd_send_pkt2sta                     0x0803f81b   Thumb Code   126  ap.o(.text)
    hostapd_check_ps_pkt                     0x0803f899   Thumb Code   180  ap.o(.text)
    hostapd_proc_beacon_done                 0x0803f94d   Thumb Code    98  ap.o(.text)
    hostapd_ps_rx                            0x0803f9af   Thumb Code   168  ap.o(.text)
    hostapd_create_softap                    0x0803fa57   Thumb Code    78  ap.o(.text)
    dl_list_add_tail                         0x0803faa5   Thumb Code    16  ap.o(.text)
    dl_list_empty                            0x0803fab5   Thumb Code    14  ap.o(.text)
    hostapd_clear_multicast_ps_bit           0x0803fac3   Thumb Code    20  ap.o(.text)
    hostapd_create_ap                        0x0803fad7   Thumb Code   142  ap.o(.text)
    .text                                    0x0803fb68   Section        0  md5.o(.text)
    MD5Transform                             0x0803fbe9   Thumb Code  1710  md5.o(.text)
    .text                                    0x080404c4   Section        0  random.o(.text)
    random_mix_pool                          0x080404c5   Thumb Code   134  random.o(.text)
    random_extract                           0x080405d3   Thumb Code   100  random.o(.text)
    .text                                    0x08040644   Section        0  rc4.o(.text)
    .text                                    0x0804075a   Section        0  sha1.o(.text)
    .text                                    0x080408d8   Section        0  sha1_internal.o(.text)
    .text                                    0x08041b90   Section        0  sha256.o(.text)
    .text                                    0x08042008   Section        0  wpa_supplicant.o(.text)
    supplicant_event_disassoc_callback       0x08042165   Thumb Code   114  wpa_supplicant.o(.text)
    wpa_supplicant_clear_connection          0x08042255   Thumb Code    56  wpa_supplicant.o(.text)
    supplicant_event_beacon_done             0x08042bed   Thumb Code    30  wpa_supplicant.o(.text)
    supplicant_event_sta_active              0x08042c0b   Thumb Code    52  wpa_supplicant.o(.text)
    supplicant_event_rx_pspoll               0x08042c3f   Thumb Code    52  wpa_supplicant.o(.text)
    supplicant_event_rx_ps                   0x08042c73   Thumb Code    80  wpa_supplicant.o(.text)
    tls_supplicant_sta_event_handle          0x08043215   Thumb Code   214  wpa_supplicant.o(.text)
    dl_list_add                              0x08043543   Thumb Code    14  wpa_supplicant.o(.text)
    dl_list_del                              0x08043551   Thumb Code    20  wpa_supplicant.o(.text)
    dl_list_empty                            0x08043565   Thumb Code    14  wpa_supplicant.o(.text)
    is_zero_ether_addr                       0x08043573   Thumb Code    32  wpa_supplicant.o(.text)
    eloop_remove_timeout                     0x08043593   Thumb Code    18  wpa_supplicant.o(.text)
    supplicant_connect_network               0x080435a5   Thumb Code   106  wpa_supplicant.o(.text)
    .text                                    0x08043630   Section        0  tls_wl_core.o(.text)
    tls_wl_init_ifdata                       0x0804380f   Thumb Code   280  tls_wl_core.o(.text)
    dl_list_empty                            0x08043fd9   Thumb Code    14  tls_wl_core.o(.text)
    .text                                    0x08043ff4   Section        0  tls_wl_hw.o(.text)
    hed_get_key_table_idx                    0x08044511   Thumb Code    46  tls_wl_hw.o(.text)
    hed_sec_set_bd_key_tbl                   0x0804453f   Thumb Code    96  tls_wl_hw.o(.text)
    hed_sec_set_key_info                     0x08044633   Thumb Code   190  tls_wl_hw.o(.text)
    hed_sec_set_ctrl_reg                     0x080446f1   Thumb Code   116  tls_wl_hw.o(.text)
    hed_hw_set_wep_key                       0x08044815   Thumb Code   338  tls_wl_hw.o(.text)
    tls_wl_hw_set_beacon                     0x08044af3   Thumb Code    90  tls_wl_hw.o(.text)
    hed_hw_set_tkip_key                      0x08044b4d   Thumb Code   156  tls_wl_hw.o(.text)
    hed_hw_set_ccmp_key                      0x08044be9   Thumb Code   156  tls_wl_hw.o(.text)
    hed_sec_set_uni_key_tbl                  0x08044c85   Thumb Code    34  tls_wl_hw.o(.text)
    .text                                    0x08044cc8   Section        0  tls_wl_if.o(.text)
    set_sta_flags                            0x08045883   Thumb Code    24  tls_wl_if.o(.text)
    .text                                    0x080458b0   Section        0  tls_wl_rf.o(.text)
    .text                                    0x08046124   Section        0  tls_wl_tx.o(.text)
    compare_ether_addr                       0x08046125   Thumb Code    56  tls_wl_tx.o(.text)
    tls_wl_set_rates                         0x080462d3   Thumb Code   164  tls_wl_tx.o(.text)
    hed_tx_start                             0x080467ab   Thumb Code   472  tls_wl_tx.o(.text)
    ieee80211_tx                             0x08046983   Thumb Code  1654  tls_wl_tx.o(.text)
    ieee80211_has_a4                         0x0804732f   Thumb Code    16  tls_wl_tx.o(.text)
    ieee80211_is_data_qos                    0x0804733f   Thumb Code    16  tls_wl_tx.o(.text)
    ieee80211_get_qos_ctl                    0x0804734f   Thumb Code    24  tls_wl_tx.o(.text)
    conf_is_ht40_minus                       0x08047367   Thumb Code    16  tls_wl_tx.o(.text)
    conf_is_ht40_plus                        0x08047377   Thumb Code    16  tls_wl_tx.o(.text)
    conf_is_ht                               0x08047387   Thumb Code    12  tls_wl_tx.o(.text)
    ieee80211_wep_get_iv                     0x08047393   Thumb Code    78  tls_wl_tx.o(.text)
    ieee80211_ap_rx_ps                       0x080473e1   Thumb Code    18  tls_wl_tx.o(.text)
    .text                                    0x080473f8   Section        0  wm_wifi_api.o(.text)
    __wpa_update_mode                        0x08047d2d   Thumb Code    40  wm_wifi_api.o(.text)
    .text                                    0x08048724   Section        0  wm_wifi_oneshot_api.o(.text)
    tls_wifi_clear_1shot_info                0x08048725   Thumb Code   188  wm_wifi_oneshot_api.o(.text)
    .text                                    0x08048f8c   Section        0  litepoint.o(.text)
    .text                                    0x080494cc   Section        0  libtommath.o(.text)
    s_mp_add                                 0x0804955f   Thumb Code   170  libtommath.o(.text)
    s_mp_sub                                 0x08049609   Thumb Code   140  libtommath.o(.text)
    fast_s_mp_mul_digs                       0x08049821   Thumb Code   230  libtommath.o(.text)
    s_mp_mul_digs                            0x08049907   Thumb Code   198  libtommath.o(.text)
    mp_mul                                   0x080499cd   Thumb Code    54  libtommath.o(.text)
    s_mp_sqr                                 0x08049fa5   Thumb Code   202  libtommath.o(.text)
    s_mp_exptmod                             0x0804a28f   Thumb Code   678  libtommath.o(.text)
    s_mp_mul_high_digs                       0x0804a971   Thumb Code   168  libtommath.o(.text)
    .text                                    0x0804aa18   Section        0  bss.o(.text)
    .text                                    0x0804ac8c   Section        0  events.o(.text)
    wpa_supplicant_event_associnfo           0x0804acd5   Thumb Code   276  events.o(.text)
    wpa_config_validate_network_test         0x0804b051   Thumb Code   120  events.o(.text)
    wpa_supplicant_update_cfg                0x0804b20f   Thumb Code   782  events.o(.text)
    wpa_supplicant_ssid_bss_match            0x0804b51d   Thumb Code   232  events.o(.text)
    wpa_scan_res_match                       0x0804b605   Thumb Code   274  events.o(.text)
    wpa_supplicant_select_bss                0x0804b89d   Thumb Code   184  events.o(.text)
    dl_list_del                              0x0804ba7f   Thumb Code    20  events.o(.text)
    dl_list_empty                            0x0804ba93   Thumb Code    14  events.o(.text)
    wpa_key_mgmt_wpa                         0x0804baa1   Thumb Code    18  events.o(.text)
    wpa_supplicant_update_key_open           0x0804bab3   Thumb Code   108  events.o(.text)
    wpa_scan_get_res                         0x0804bb1f   Thumb Code   100  events.o(.text)
    wpa_add_multi_bss                        0x0804bb83   Thumb Code   146  events.o(.text)
    dl_list_add_tail                         0x0804bc15   Thumb Code    16  events.o(.text)
    .text                                    0x0804bc28   Section        0  hostapd.o(.text)
    hostapd_setup_bss                        0x0804bca1   Thumb Code   202  hostapd.o(.text)
    hostapd_flush_old_stations               0x0804bf1f   Thumb Code    42  hostapd.o(.text)
    .text                                    0x0804bf4c   Section        0  ieee802_1x.o(.text)
    .text                                    0x0804bfe0   Section        0  ieee802_11.o(.text)
    handle_auth                              0x0804c245   Thumb Code   220  ieee802_11.o(.text)
    check_assoc_ies                          0x0804c321   Thumb Code   358  ieee802_11.o(.text)
    send_assoc_resp                          0x0804c487   Thumb Code   162  ieee802_11.o(.text)
    handle_assoc                             0x0804c529   Thumb Code   538  ieee802_11.o(.text)
    send_auth_reply                          0x0804c88d   Thumb Code   132  ieee802_11.o(.text)
    handle_assoc_cb                          0x0804c911   Thumb Code   114  ieee802_11.o(.text)
    handle_disassoc                          0x0804c983   Thumb Code   108  ieee802_11.o(.text)
    .text                                    0x0804c9ee   Section        0  ieee802_11_common.o(.text)
    ieee802_11_parse_vendor_specific         0x0804cc29   Thumb Code   104  ieee802_11_common.o(.text)
    .text                                    0x0804cc90   Section        0  os_internal.o(.text)
    .text                                    0x0804ccfc   Section        0  scan.o(.text)
    .text                                    0x0804cee8   Section        0  sha1-pbkdf2.o(.text)
    pbkdf2_sha1_f                            0x0804cf3f   Thumb Code   162  sha1-pbkdf2.o(.text)
    .text                                    0x0804cfe0   Section        0  hostapd_sta_info.o(.text)
    ap_sta_clear_pspkt                       0x0804cfe1   Thumb Code    88  hostapd_sta_info.o(.text)
    ap_sta_disassoc_cb_timeout               0x0804d0f5   Thumb Code    26  hostapd_sta_info.o(.text)
    ap_sta_remove                            0x0804d56d   Thumb Code    28  hostapd_sta_info.o(.text)
    .text                                    0x0804d58c   Section        0  tkip_countermeasures.o(.text)
    ieee80211_tkip_countermeasures_stop      0x0804d58d   Thumb Code    10  tkip_countermeasures.o(.text)
    ieee80211_tkip_countermeasures_start     0x0804d5fd   Thumb Code   118  tkip_countermeasures.o(.text)
    .text                                    0x0804d67c   Section        0  wpa.o(.text)
    wpa_supplicant_process_1_of_4            0x0804d85d   Thumb Code   232  wpa.o(.text)
    wpa_sm_rekey_ptk                         0x0804d945   Thumb Code     6  wpa.o(.text)
    wpa_supplicant_check_group_cipher        0x0804d94b   Thumb Code    94  wpa.o(.text)
    wpa_supplicant_install_gtk               0x0804d9a9   Thumb Code   212  wpa.o(.text)
    wpa_supplicant_validate_ie               0x0804da7d   Thumb Code   170  wpa.o(.text)
    wpa_supplicant_process_3_of_4            0x0804dbe3   Thumb Code   218  wpa.o(.text)
    wpa_supplicant_process_1_of_2_wpa        0x0804dcbd   Thumb Code   310  wpa.o(.text)
    wpa_supplicant_process_1_of_2            0x0804ddf3   Thumb Code   212  wpa.o(.text)
    is_zero_ether_addr                       0x0804e2df   Thumb Code    32  wpa.o(.text)
    wpa_supplicant_verify_eapol_key_mic      0x0804e2ff   Thumb Code   162  wpa.o(.text)
    wpa_supplicant_key_neg_complete          0x0804e3a1   Thumb Code    28  wpa.o(.text)
    wpa_supplicant_install_ptk               0x0804e3bd   Thumb Code   158  wpa.o(.text)
    wpa_supplicant_gtk_tx_bit_workaround     0x0804e45b   Thumb Code    18  wpa.o(.text)
    wpa_supplicant_pairwise_gtk              0x0804e46d   Thumb Code   146  wpa.o(.text)
    wpa_report_ie_mismatch                   0x0804e4ff   Thumb Code     6  wpa.o(.text)
    wpa_supplicant_process_1_of_2_rsn        0x0804e505   Thumb Code   128  wpa.o(.text)
    wpa_supplicant_send_2_of_2               0x0804e585   Thumb Code   158  wpa.o(.text)
    wpa_supplicant_decrypt_key_data          0x0804e623   Thumb Code   164  wpa.o(.text)
    .text                                    0x0804e6c6   Section        0  wpa_driver.o(.text)
    is_broadcast_ether_addr                  0x0804eaf7   Thumb Code    34  wpa_driver.o(.text)
    cipher2drv                               0x0804eb19   Thumb Code    40  wpa_driver.o(.text)
    .text                                    0x0804eb40   Section        0  wpa_ie.o(.text)
    wpa_gen_wpa_ie_wpa                       0x0804eb51   Thumb Code   316  wpa_ie.o(.text)
    wpa_gen_wpa_ie_rsn                       0x0804ec8d   Thumb Code   224  wpa_ie.o(.text)
    wpa_parse_generic                        0x0804ee8b   Thumb Code   160  wpa_ie.o(.text)
    .text                                    0x0804ef34   Section        0  wpabuf.o(.text)
    wpabuf_head                              0x0804f04d   Thumb Code    14  wpabuf.o(.text)
    wpabuf_put_data                          0x0804f05b   Thumb Code    28  wpabuf.o(.text)
    .text                                    0x0804f076   Section        0  wpas_glue.o(.text)
    .text                                    0x0804f1ac   Section        0  tls_wl_bss.o(.text)
    bss_release                              0x0804f1ad   Thumb Code    22  tls_wl_bss.o(.text)
    is_bss                                   0x0804f83d   Thumb Code    82  tls_wl_bss.o(.text)
    .text                                    0x0804f894   Section        0  tls_wl_key.o(.text)
    __ieee80211_key_replace                  0x0804f9c7   Thumb Code   136  tls_wl_key.o(.text)
    __ieee80211_key_destroy                  0x0804fb99   Thumb Code    24  tls_wl_key.o(.text)
    __ieee80211_key_free                     0x0804fbb1   Thumb Code    34  tls_wl_key.o(.text)
    .text                                    0x0804fbd4   Section        0  tls_wl_mgmt.o(.text)
    tls_wl_set_mac_txbd                      0x0804fc1b   Thumb Code   108  tls_wl_mgmt.o(.text)
    tls_wl_enable_tx_mgmt_frm                0x0804fc87   Thumb Code    92  tls_wl_mgmt.o(.text)
    dl_list_add_tail                         0x080507db   Thumb Code    16  tls_wl_mgmt.o(.text)
    dl_list_empty                            0x080507eb   Thumb Code    14  tls_wl_mgmt.o(.text)
    conf_is_ht40_minus                       0x080507f9   Thumb Code    16  tls_wl_mgmt.o(.text)
    conf_is_ht40_plus                        0x08050809   Thumb Code    16  tls_wl_mgmt.o(.text)
    tls_wl_set_mac_txbd4power                0x08050819   Thumb Code   114  tls_wl_mgmt.o(.text)
    .text                                    0x08050890   Section        0  tls_wl_mlme.o(.text)
    ieee80211_sta_wmm_params                 0x08050891   Thumb Code   580  tls_wl_mlme.o(.text)
    ieee80211_sta_send_apinfo                0x08050ad5   Thumb Code    42  tls_wl_mlme.o(.text)
    ieee80211_handle_bss_capability          0x08050bfd   Thumb Code    68  tls_wl_mlme.o(.text)
    ieee80211_set_associated                 0x08050c41   Thumb Code   308  tls_wl_mlme.o(.text)
    ieee80211_associated                     0x08050d75   Thumb Code   312  tls_wl_mlme.o(.text)
    ieee80211_associate                      0x08050ead   Thumb Code    70  tls_wl_mlme.o(.text)
    ieee80211_rx_bss_info                    0x08050f01   Thumb Code    78  tls_wl_mlme.o(.text)
    ieee80211_rx_mgmt_beacon                 0x080510af   Thumb Code   230  tls_wl_mlme.o(.text)
    ieee80211_send_addba_resp                0x08051451   Thumb Code   328  tls_wl_mlme.o(.text)
    ieee80211_rx_mgmt_assoc_resp             0x08051635   Thumb Code   614  tls_wl_mlme.o(.text)
    ieee80211_sta_rx_queued_mgmt             0x0805189b   Thumb Code   266  tls_wl_mlme.o(.text)
    set_bit                                  0x08051cf3   Thumb Code    34  tls_wl_mlme.o(.text)
    test_and_clear_bit                       0x08051d15   Thumb Code    44  tls_wl_mlme.o(.text)
    dl_list_add_tail                         0x08051d41   Thumb Code    16  tls_wl_mlme.o(.text)
    dl_list_empty                            0x08051d51   Thumb Code    14  tls_wl_mlme.o(.text)
    set_sta_flags                            0x08051d5f   Thumb Code    24  tls_wl_mlme.o(.text)
    ieee80211_authenticate                   0x08051d77   Thumb Code   102  tls_wl_mlme.o(.text)
    ieee80211_rx_mgmt_probe_resp             0x08051ddd   Thumb Code   156  tls_wl_mlme.o(.text)
    ieee80211_rx_mgmt_deauth                 0x08051e79   Thumb Code   142  tls_wl_mlme.o(.text)
    ieee80211_rx_mgmt_auth                   0x08051f07   Thumb Code   184  tls_wl_mlme.o(.text)
    ieee80211_rx_mgmt_action                 0x08051fbf   Thumb Code   134  tls_wl_mlme.o(.text)
    ieee80211_auth_completed                 0x08052045   Thumb Code    16  tls_wl_mlme.o(.text)
    .text                                    0x08052058   Section        0  tls_wl_phy.o(.text)
    .text                                    0x080520e0   Section        0  tls_wl_rc.o(.text)
    rc_valid_phyrate                         0x08052257   Thumb Code    82  tls_wl_rc.o(.text)
    rc_wl_select_max_rate                    0x080522a9   Thumb Code   182  tls_wl_rc.o(.text)
    rc_init                                  0x0805235f   Thumb Code   382  tls_wl_rc.o(.text)
    rc_get_highest_rix                       0x0805264b   Thumb Code   116  tls_wl_rc.o(.text)
    get_rate_mode_via_rate_code              0x080526bf   Thumb Code   120  tls_wl_rc.o(.text)
    re_change_next_idx                       0x08052737   Thumb Code    78  tls_wl_rc.o(.text)
    rc_rate_set_series                       0x08052785   Thumb Code   138  tls_wl_rc.o(.text)
    rc_nrate_remap_grate                     0x0805280f   Thumb Code   106  tls_wl_rc.o(.text)
    rc_set_rate                              0x08052879   Thumb Code   454  tls_wl_rc.o(.text)
    rc_setvalid_htrates                      0x08052b65   Thumb Code   138  tls_wl_rc.o(.text)
    .text                                    0x08052bf8   Section        0  tls_wl_rx.o(.text)
    compare_ether_addr                       0x08052bf9   Thumb Code    56  tls_wl_rx.o(.text)
    ieee80211_frame_allowed                  0x08052e4d   Thumb Code    60  tls_wl_rx.o(.text)
    prepare_for_handlers                     0x08052e89   Thumb Code   684  tls_wl_rx.o(.text)
    ieee80211_rx_michael_mic_verify          0x08053261   Thumb Code   430  tls_wl_rx.o(.text)
    ieee80211_rx_h_amsdu                     0x0805340f   Thumb Code   610  tls_wl_rx.o(.text)
    ieee80211_rx_mgmt_handle                 0x08053671   Thumb Code   304  tls_wl_rx.o(.text)
    ieee80211_rx_data_handle                 0x080537a1   Thumb Code   460  tls_wl_rx.o(.text)
    ieee80211_check_frame                    0x0805396d   Thumb Code   276  tls_wl_rx.o(.text)
    atomic_sub_return                        0x08053ce3   Thumb Code    24  tls_wl_rx.o(.text)
    dl_list_add_tail                         0x08053cfb   Thumb Code    16  tls_wl_rx.o(.text)
    dl_list_empty                            0x08053d0b   Thumb Code    14  tls_wl_rx.o(.text)
    ieee80211_has_a4                         0x08053d19   Thumb Code    16  tls_wl_rx.o(.text)
    ieee80211_is_mgmt                        0x08053d29   Thumb Code    14  tls_wl_rx.o(.text)
    ieee80211_is_data                        0x08053d37   Thumb Code    16  tls_wl_rx.o(.text)
    ieee80211_is_probe_resp                  0x08053d47   Thumb Code    16  tls_wl_rx.o(.text)
    ieee80211_is_beacon                      0x08053d57   Thumb Code    16  tls_wl_rx.o(.text)
    ieee80211_is_pspoll                      0x08053d67   Thumb Code    16  tls_wl_rx.o(.text)
    ieee80211_get_SA                         0x08053d77   Thumb Code    38  tls_wl_rx.o(.text)
    ieee80211_get_DA                         0x08053d9d   Thumb Code    16  tls_wl_rx.o(.text)
    test_sta_flags                           0x08053dad   Thumb Code    40  tls_wl_rx.o(.text)
    ieee80211_reassemble_find                0x08053dd5   Thumb Code   152  tls_wl_rx.o(.text)
    ieee80211_data_to_8023                   0x08053e6d   Thumb Code   182  tls_wl_rx.o(.text)
    ieee80211_mgmt_filter                    0x08053f23   Thumb Code   186  tls_wl_rx.o(.text)
    .text                                    0x08053fe8   Section        0  tls_wl_scan.o(.text)
    .text                                    0x0805430c   Section        0  tls_wl_sta_info.o(.text)
    sta_info_release                         0x08054359   Thumb Code    20  tls_wl_sta_info.o(.text)
    .text                                    0x08054548   Section        0  tls_wl_util.o(.text)
    ieee80211_has_a4                         0x080549b9   Thumb Code    16  tls_wl_util.o(.text)
    ieee80211_is_ctl                         0x080549c9   Thumb Code    12  tls_wl_util.o(.text)
    ieee80211_is_data                        0x080549d5   Thumb Code    16  tls_wl_util.o(.text)
    .text                                    0x080549ec   Section        0  tls_rf_tx_iq.o(.text)
    .text                                    0x080555f8   Section        0  tx_lo_cal.o(.text)
    .text                                    0x08056750   Section        0  aes_unwrap.o(.text)
    .text                                    0x0805680a   Section        0  ap_mlme.o(.text)
    .text                                    0x08056840   Section        0  beacon.o(.text)
    ieee802_11_erp_info                      0x08056841   Thumb Code    58  beacon.o(.text)
    hostapd_eid_wpa                          0x0805692b   Thumb Code    42  beacon.o(.text)
    hostapd_eid_ds_params                    0x08056cf7   Thumb Code    18  beacon.o(.text)
    .text                                    0x08056d08   Section        0  common.o(.text)
    hex2num                                  0x08056ddd   Thumb Code    42  common.o(.text)
    .text                                    0x08056e14   Section        0  wpa_auth.o(.text)
    wpa_auth_set_eapol                       0x08056e15   Thumb Code    44  wpa_auth.o(.text)
    wpa_auth_set_key                         0x08056e41   Thumb Code    40  wpa_auth.o(.text)
    wpa_rekey_gmk                            0x08056e8f   Thumb Code    36  wpa_auth.o(.text)
    wpa_free_sta_sm                          0x08056eb3   Thumb Code    54  wpa_auth.o(.text)
    wpa_send_eapol_timeout                   0x08056ee9   Thumb Code    18  wpa_auth.o(.text)
    wpa_send_eapol                           0x080571c5   Thumb Code   114  wpa_auth.o(.text)
    sm_WPA_PTK_GROUP_REKEYNEGOTIATING_Enter  0x08057237   Thumb Code   234  wpa_auth.o(.text)
    sm_WPA_PTK_GROUP_Step                    0x08057321   Thumb Code   216  wpa_auth.o(.text)
    sm_WPA_PTK_PTKINITNEGOTIATING_Enter      0x080573f9   Thumb Code   292  wpa_auth.o(.text)
    wpa_rekey_ptk                            0x0805751d   Thumb Code    20  wpa_auth.o(.text)
    sm_WPA_PTK_PTKINITDONE_Enter             0x08057531   Thumb Code   208  wpa_auth.o(.text)
    sm_WPA_PTK_PTKSTART_Enter                0x08057601   Thumb Code   176  wpa_auth.o(.text)
    wpa_verify_key_mic                       0x080576b1   Thumb Code   116  wpa_auth.o(.text)
    sm_WPA_PTK_PTKCALCNEGOTIATING_Enter      0x08057725   Thumb Code   204  wpa_auth.o(.text)
    wpa_group_config_group_keys              0x080577f1   Thumb Code    78  wpa_auth.o(.text)
    wpa_gtk_update                           0x0805783f   Thumb Code   146  wpa_auth.o(.text)
    wpa_group_init_gmk_and_counter           0x080578d1   Thumb Code   100  wpa_auth.o(.text)
    sm_WPA_PTK_AUTHENTICATION2_Enter         0x08057935   Thumb Code   102  wpa_auth.o(.text)
    sm_WPA_PTK_INITIALIZE_Enter              0x080579d5   Thumb Code   148  wpa_auth.o(.text)
    sm_WPA_PTK_Step                          0x08057a69   Thumb Code   480  wpa_auth.o(.text)
    wpa_sm_step                              0x08057c49   Thumb Code   134  wpa_auth.o(.text)
    wpa_group_update_sta                     0x08057ccf   Thumb Code    38  wpa_auth.o(.text)
    wpa_group_setkeys                        0x08057cf5   Thumb Code    56  wpa_auth.o(.text)
    wpa_group_sm_step                        0x08057d2d   Thumb Code    96  wpa_auth.o(.text)
    wpa_rekey_gtk                            0x08057d8d   Thumb Code    64  wpa_auth.o(.text)
    wpa_key_mgmt_sha256                      0x080583eb   Thumb Code    10  wpa_auth.o(.text)
    wpa_auth_get_seqnum                      0x080583f5   Thumb Code     6  wpa_auth.o(.text)
    wpa_sta_disconnect                       0x080583fb   Thumb Code    12  wpa_auth.o(.text)
    sm_WPA_PTK_GROUP_IDLE_Enter              0x08058407   Thumb Code    42  wpa_auth.o(.text)
    sm_WPA_PTK_DISCONNECT_Enter              0x08058431   Thumb Code    38  wpa_auth.o(.text)
    wpa_request_new_ptk                      0x08058457   Thumb Code    18  wpa_auth.o(.text)
    sm_WPA_PTK_DISCONNECTED_Enter            0x08058469   Thumb Code    30  wpa_auth.o(.text)
    wpa_group_setkeysdone                    0x08058487   Thumb Code    32  wpa_auth.o(.text)
    wpa_group_set_key_len                    0x080584a7   Thumb Code    32  wpa_auth.o(.text)
    wpa_receive_error_report                 0x080584c7   Thumb Code    56  wpa_auth.o(.text)
    .text                                    0x08058508   Section        0  wpa_auth_glue.o(.text)
    .text                                    0x08058588   Section        0  wpa_auth_ie.o(.text)
    wpa_write_wpa_ie                         0x08058589   Thumb Code   296  wpa_auth_ie.o(.text)
    wpa_parse_generic                        0x08058b69   Thumb Code   160  wpa_auth_ie.o(.text)
    .text                                    0x08058c14   Section        0  wpa_common.o(.text)
    rsn_selector_to_bitfield                 0x08058d7b   Thumb Code   106  wpa_common.o(.text)
    wpa_selector_to_bitfield                 0x08058f33   Thumb Code   106  wpa_common.o(.text)
    .text                                    0x08059170   Section        0  hostapd_wpa_driver.o(.text)
    cipher2drv                               0x0805938d   Thumb Code    40  hostapd_wpa_driver.o(.text)
    .text                                    0x080593b4   Section        0  tls_rf_fft.o(.text)
    .text                                    0x0805951c   Section        0  aes_wrap.o(.text)
    .text                                    0x080595c4   Section        0  uldiv.o(.text)
    .text                                    0x0805962a   Section        0  ldiv.o(.text)
    .text                                    0x08059684   Section        0  ctype_o.o(.text)
    .text                                    0x0805968c   Section        0  isspace_o.o(.text)
    .text                                    0x0805969e   Section        0  toupper.o(.text)
    .text                                    0x080596aa   Section        0  tolower.o(.text)
    .text                                    0x080596b8   Section        0  rand.o(.text)
    .text                                    0x080596dc   Section        0  memmove.o(.text)
    .text                                    0x0805971e   Section        0  memseta.o(.text)
    .text                                    0x08059744   Section        0  strcat.o(.text)
    .text                                    0x08059760   Section        0  strstr.o(.text)
    .text                                    0x0805978c   Section        0  strncpy.o(.text)
    .text                                    0x080597a4   Section        0  strchr.o(.text)
    .text                                    0x080597b6   Section        0  strlen.o(.text)
    .text                                    0x080597c6   Section        0  strcmp.o(.text)
    .text                                    0x080597e2   Section        0  memchr.o(.text)
    .text                                    0x080597f6   Section        0  memcmp.o(.text)
    .text                                    0x08059810   Section        0  strcpy.o(.text)
    .text                                    0x08059822   Section        0  strncmp.o(.text)
    .text                                    0x08059840   Section        0  strcasecmp.o(.text)
    .text                                    0x0805986c   Section        0  __0sscanf.o(.text)
    .text                                    0x080598a4   Section        0  _scanf_int.o(.text)
    .text                                    0x080599f2   Section        0  _scanf_str.o(.text)
    .text                                    0x08059aca   Section        0  atoi.o(.text)
    .text                                    0x08059ae4   Section        0  atol.o(.text)
    .text                                    0x08059afe   Section        0  dadd.o(.text)
    .text                                    0x08059c48   Section        0  dmul.o(.text)
    .text                                    0x08059d2a   Section        0  ddiv.o(.text)
    .text                                    0x08059e08   Section        0  dscalb.o(.text)
    .text                                    0x08059e36   Section        0  dflti.o(.text)
    .text                                    0x08059e58   Section        0  dfltui.o(.text)
    .text                                    0x08059e72   Section        0  dfixi.o(.text)
    .text                                    0x08059eb0   Section        0  dfixul.o(.text)
    .text                                    0x08059ee0   Section       40  cdrcmple.o(.text)
    .text                                    0x08059f08   Section        0  uidiv.o(.text)
    .text                                    0x08059f34   Section        0  llshl.o(.text)
    .text                                    0x08059f52   Section        0  llushr.o(.text)
    .text                                    0x08059f72   Section        0  llsshr.o(.text)
    .text                                    0x08059f96   Section        0  _chval.o(.text)
    .text                                    0x08059fb8   Section        0  scanf_char.o(.text)
    _scanf_char_input                        0x08059fb9   Thumb Code    12  scanf_char.o(.text)
    .text                                    0x08059fe4   Section        0  _sgetc.o(.text)
    .text                                    0x0805a024   Section        0  strtol.o(.text)
    .text                                    0x0805a094   Section        0  iusefp.o(.text)
    .text                                    0x0805a094   Section        0  depilogue.o(.text)
    .text                                    0x0805a158   Section       36  init.o(.text)
    .text                                    0x0805a17c   Section        0  _scanf.o(.text)
    .text                                    0x0805a4b4   Section        0  _strtoul.o(.text)
    .text                                    0x0805a550   Section        0  __dczerorl2.o(.text)
    i.__0printf                              0x0805a5ac   Section        0  printfa.o(i.__0printf)
    i.__0snprintf                            0x0805a5cc   Section        0  printfa.o(i.__0snprintf)
    i.__0sprintf                             0x0805a5f4   Section        0  printfa.o(i.__0sprintf)
    i.__aeabi_errno_addr                     0x0805a61c   Section        0  errno.o(i.__aeabi_errno_addr)
    i.__free$realloc                         0x0805a624   Section        0  mallocr.o(i.__free$realloc)
    i.__malloc$realloc                       0x0805a680   Section        0  mallocr.o(i.__malloc$realloc)
    i.__scatterload_copy                     0x0805a6d0   Section       14  handlers.o(i.__scatterload_copy)
    i.__scatterload_null                     0x0805a6de   Section        2  handlers.o(i.__scatterload_null)
    i.__scatterload_zeroinit                 0x0805a6e0   Section       14  handlers.o(i.__scatterload_zeroinit)
    i._fp_digits                             0x0805a6f0   Section        0  printfa.o(i._fp_digits)
    _fp_digits                               0x0805a6f1   Thumb Code   318  printfa.o(i._fp_digits)
    i._printf_core                           0x0805a844   Section        0  printfa.o(i._printf_core)
    _printf_core                             0x0805a845   Thumb Code  1734  printfa.o(i._printf_core)
    i._printf_post_padding                   0x0805af18   Section        0  printfa.o(i._printf_post_padding)
    _printf_post_padding                     0x0805af19   Thumb Code    38  printfa.o(i._printf_post_padding)
    i._printf_pre_padding                    0x0805af3e   Section        0  printfa.o(i._printf_pre_padding)
    _printf_pre_padding                      0x0805af3f   Thumb Code    46  printfa.o(i._printf_pre_padding)
    i._snputc                                0x0805af6c   Section        0  printfa.o(i._snputc)
    _snputc                                  0x0805af6d   Thumb Code    22  printfa.o(i._snputc)
    i._sputc                                 0x0805af82   Section        0  printfa.o(i._sputc)
    _sputc                                   0x0805af83   Thumb Code    10  printfa.o(i._sputc)
    i.internal_alloc                         0x0805af8c   Section        0  mallocr.o(i.internal_alloc)
    internal_alloc                           0x0805af8d   Thumb Code    68  mallocr.o(i.internal_alloc)
    i.realloc                                0x0805afd4   Section        0  mallocr.o(i.realloc)
    .constdata                               0x0805b044   Section        4  wm_main.o(.constdata)
    .constdata                               0x0805b048   Section        6  wm_main.o(.constdata)
    .constdata                               0x0805b050   Section       68  wm_driver.o(.constdata)
    .constdata                               0x0805b094   Section     2776  wm_common.o(.constdata)
    factory_default_hardware                 0x0805b094   Data           8  wm_common.o(.constdata)
    crc8_tbl                                 0x0805b09c   Data         256  wm_common.o(.constdata)
    extTable                                 0x0805b19c   Data         200  wm_common.o(.constdata)
    bytebit                                  0x0805b264   Data          32  wm_common.o(.constdata)
    bigbyte                                  0x0805b284   Data          96  wm_common.o(.constdata)
    pc1                                      0x0805b2e4   Data          56  wm_common.o(.constdata)
    pc2                                      0x0805b31c   Data          48  wm_common.o(.constdata)
    totrot                                   0x0805b34c   Data          16  wm_common.o(.constdata)
    SP1                                      0x0805b35c   Data         256  wm_common.o(.constdata)
    SP2                                      0x0805b45c   Data         256  wm_common.o(.constdata)
    SP3                                      0x0805b55c   Data         256  wm_common.o(.constdata)
    SP4                                      0x0805b65c   Data         256  wm_common.o(.constdata)
    SP5                                      0x0805b75c   Data         256  wm_common.o(.constdata)
    SP6                                      0x0805b85c   Data         256  wm_common.o(.constdata)
    SP7                                      0x0805b95c   Data         256  wm_common.o(.constdata)
    SP8                                      0x0805ba5c   Data         272  wm_common.o(.constdata)
    .constdata                               0x0805bb6c   Section      102  wm_oneshot_airkiss.o(.constdata)
    akconfig                                 0x0805bb6c   Data          16  wm_oneshot_airkiss.o(.constdata)
    .constdata                               0x0805bbd2   Section      259  wm_oneshot_lsd.o(.constdata)
    .constdata                               0x0805bcd8   Section      445  wm_cmd.o(.constdata)
    .constdata                               0x0805be98   Section        4  wm_rtos.o(.constdata)
    .constdata                               0x0805be9c   Section      103  wm_rtos.o(.constdata)
    ucExpectedStackBytes                     0x0805be9c   Data          20  wm_rtos.o(.constdata)
    .constdata                               0x0805bf04   Section        2  lwip2.0.3.o(.constdata)
    .constdata                               0x0805bf06   Section        2  lwip2.0.3.o(.constdata)
    .constdata                               0x0805bf08   Section        2  lwip2.0.3.o(.constdata)
    .constdata                               0x0805bf0a   Section        2  lwip2.0.3.o(.constdata)
    .constdata                               0x0805bf0c   Section        2  lwip2.0.3.o(.constdata)
    .constdata                               0x0805bf0e   Section        2  lwip2.0.3.o(.constdata)
    .constdata                               0x0805bf10   Section        2  lwip2.0.3.o(.constdata)
    .constdata                               0x0805bf12   Section        2  lwip2.0.3.o(.constdata)
    .constdata                               0x0805bf14   Section        2  lwip2.0.3.o(.constdata)
    .constdata                               0x0805bf16   Section        2  lwip2.0.3.o(.constdata)
    .constdata                               0x0805bf18   Section        2  lwip2.0.3.o(.constdata)
    .constdata                               0x0805bf1a   Section        2  lwip2.0.3.o(.constdata)
    .constdata                               0x0805bf1c   Section        2  lwip2.0.3.o(.constdata)
    .constdata                               0x0805bf1e   Section        2  lwip2.0.3.o(.constdata)
    .constdata                               0x0805bf20   Section        2  lwip2.0.3.o(.constdata)
    .constdata                               0x0805bf22   Section        2  lwip2.0.3.o(.constdata)
    .constdata                               0x0805bf24   Section      388  lwip2.0.3.o(.constdata)
    tcp_persist_backoff                      0x0805bf3e   Data           7  lwip2.0.3.o(.constdata)
    tcp_state_str                            0x0805bf88   Data          44  lwip2.0.3.o(.constdata)
    tcp_backoff                              0x0805bfb4   Data          13  lwip2.0.3.o(.constdata)
    err_to_errno_table                       0x0805c00c   Data          68  lwip2.0.3.o(.constdata)
    .constdata                               0x0805c0a8   Section       16  wm_http_compile.o(.constdata)
    .constdata                               0x0805c0b8   Section      106  wm_matrixssl_compile.o(.constdata)
    SENDER_CLIENT                            0x0805c0b8   Data           5  wm_matrixssl_compile.o(.constdata)
    SENDER_SERVER                            0x0805c0bd   Data           5  wm_matrixssl_compile.o(.constdata)
    pad1                                     0x0805c0c2   Data          48  wm_matrixssl_compile.o(.constdata)
    pad2                                     0x0805c0f2   Data          48  wm_matrixssl_compile.o(.constdata)
    .constdata                               0x0805c122   Section      119  fs.o(.constdata)
    data_404_html                            0x0805c122   Data         119  fs.o(.constdata)
    .constdata                               0x0805c199   Section     4194  fs.o(.constdata)
    data_hedbasic_html                       0x0805c199   Data        4194  fs.o(.constdata)
    .constdata                               0x0805d1fb   Section     1780  fs.o(.constdata)
    data_hedfirmware_html                    0x0805d1fb   Data        1780  fs.o(.constdata)
    .constdata                               0x0805d8ef   Section      461  fs.o(.constdata)
    data_index_html                          0x0805d8ef   Data         461  fs.o(.constdata)
    .constdata                               0x0805dabc   Section      108  fs.o(.constdata)
    data_jump_html                           0x0805dabc   Data         108  fs.o(.constdata)
    .constdata                               0x0805db28   Section      438  fs.o(.constdata)
    data_style_css                           0x0805db28   Data         438  fs.o(.constdata)
    .constdata                               0x0805dce0   Section       16  fs.o(.constdata)
    .constdata                               0x0805dcf0   Section       16  fs.o(.constdata)
    .constdata                               0x0805dd00   Section       16  fs.o(.constdata)
    .constdata                               0x0805dd10   Section       16  fs.o(.constdata)
    .constdata                               0x0805dd20   Section       16  fs.o(.constdata)
    .constdata                               0x0805dd30   Section       16  fs.o(.constdata)
    .constdata                               0x0805dd40   Section      127  httpd.o(.constdata)
    .constdata                               0x0805ddc0   Section      528  web.o(.constdata)
    .constdata                               0x0805dfd0   Section      546  airkiss_log.o(.constdata)
    CRC8_ARRAY                               0x0805dfd0   Data         256  airkiss_log.o(.constdata)
    .constdata                               0x0805e1f4   Section     4152  aesMatrix.o(.constdata)
    TE0                                      0x0805e1f4   Data        1024  aesMatrix.o(.constdata)
    Te4                                      0x0805e5f4   Data        1024  aesMatrix.o(.constdata)
    TD0                                      0x0805e9f4   Data        1024  aesMatrix.o(.constdata)
    Td4                                      0x0805edf4   Data        1040  aesMatrix.o(.constdata)
    rcon                                     0x0805f204   Data          40  aesMatrix.o(.constdata)
    .constdata                               0x0805f22c   Section      144  ap.o(.constdata)
    .constdata                               0x0805f2bc   Section       32  random.o(.constdata)
    twist                                    0x0805f2bc   Data          32  random.o(.constdata)
    .constdata                               0x0805f2dc   Section      256  sha256.o(.constdata)
    K                                        0x0805f2dc   Data         256  sha256.o(.constdata)
    .constdata                               0x0805f3dc   Section       64  tls_wl_rf.o(.constdata)
    .constdata                               0x0805f41c   Section      120  tls_wl_rf.o(.constdata)
    .constdata                               0x0805f494   Section      104  hostapd.o(.constdata)
    .constdata                               0x0805f4fc   Section      176  wpa.o(.constdata)
    .constdata                               0x0805f5ac   Section       80  tls_wl_phy.o(.constdata)
    .constdata                               0x0805f5fc   Section        6  tls_wl_rx.o(.constdata)
    pae_group_addr                           0x0805f5fc   Data           6  tls_wl_rx.o(.constdata)
    .constdata                               0x0805f602   Section     2048  tls_rf_fft.o(.constdata)
    cos_256                                  0x0805f602   Data        1024  tls_rf_fft.o(.constdata)
    sin_256                                  0x0805fa02   Data        1024  tls_rf_fft.o(.constdata)
    .constdata                               0x0805fe02   Section      129  ctype_o.o(.constdata)
    .constdata                               0x0805fe84   Section        4  ctype_o.o(.constdata)
    table                                    0x0805fe84   Data           4  ctype_o.o(.constdata)
    .conststring                             0x0805fe88   Section      623  wm_cmd.o(.conststring)
    .conststring                             0x080600f7   Section      104  lwip2.0.3.o(.conststring)
    .conststring                             0x0806015f   Section       63  wm_matrixssl_compile.o(.conststring)
    .conststring                             0x0806019e   Section       72  httpd.o(.conststring)
    .conststring                             0x080601e6   Section      497  web.o(.conststring)
    .conststring                             0x080603d7   Section       15  web.o(.conststring)
    .conststring                             0x080603e6   Section       73  tls_wl_if.o(.conststring)
    .data                                    0x20000000   Section        4  retarget.o(.data)
    .data                                    0x20000004   Section        4  wm_main.o(.data)
    .data                                    0x20000008   Section        4  tls_sys.o(.data)
    msg_queue                                0x20000008   Data           4  tls_sys.o(.data)
    .data                                    0x2000000c   Section      168  wm_driver.o(.data)
    wm_timer_bitmap                          0x2000000c   Data           1  wm_driver.o(.data)
    adc_offset                               0x20000010   Data           2  wm_driver.o(.data)
    spi_port                                 0x20000014   Data           4  wm_driver.o(.data)
    inside_fls                               0x20000018   Data           4  wm_driver.o(.data)
    gsflscache                               0x2000001c   Data           4  wm_driver.o(.data)
    gsSecOffset                              0x20000020   Data           4  wm_driver.o(.data)
    gsSector                                 0x20000024   Data           4  wm_driver.o(.data)
    spi_fls                                  0x20000028   Data           4  wm_driver.o(.data)
    exspifls_drv                             0x2000002c   Data           4  wm_driver.o(.data)
    pwm_callback                             0x20000030   Data           4  wm_driver.o(.data)
    rtc_context                              0x20000034   Data           8  wm_driver.o(.data)
    pmu_timer1_context                       0x2000003c   Data           8  wm_driver.o(.data)
    pmu_timer0_context                       0x20000044   Data           8  wm_driver.o(.data)
    pmu_gpio_wake_context                    0x2000004c   Data           8  wm_driver.o(.data)
    pmu_sdio_wake_context                    0x20000054   Data           8  wm_driver.o(.data)
    channels                                 0x2000005c   Data           8  wm_driver.o(.data)
    exspi_fls                                0x20000064   Data          64  wm_driver.o(.data)
    _chip_id                                 0x200000a4   Data          16  wm_driver.o(.data)
    .data                                    0x200000b8   Section       66  wm_common.o(.data)
    oneshotback                              0x200000b8   Data           1  wm_common.o(.data)
    fwup                                     0x200000bc   Data           4  wm_common.o(.data)
    fwup_msg_queue                           0x200000c0   Data           4  wm_common.o(.data)
    sys_param_lock                           0x200000c4   Data           4  wm_common.o(.data)
    current_hdr                              0x200000c8   Data           4  wm_common.o(.data)
    sum                                      0x200000d0   Data           8  wm_common.o(.data)
    asn1dsWrap                               0x200000d8   Data          15  wm_common.o(.data)
    asn256dsWrap                             0x200000e7   Data          19  wm_common.o(.data)
    .data                                    0x200000fc   Section      117  wm_wifi_oneshot.o(.data)
    gucConfigMode                            0x20000100   Data           1  wm_wifi_oneshot.o(.data)
    uctotalchannum                           0x20000102   Data           1  wm_wifi_oneshot.o(.data)
    oneshot_timer_id                         0x20000103   Data           1  wm_wifi_oneshot.o(.data)
    gucRawValid                              0x20000104   Data           1  wm_wifi_oneshot.o(.data)
    oneshot_seq                              0x20000106   Data           2  wm_wifi_oneshot.o(.data)
    oneshot_last_len                         0x20000108   Data           2  wm_wifi_oneshot.o(.data)
    lastchanmap                              0x2000010a   Data           2  wm_wifi_oneshot.o(.data)
    gpfResult                                0x20000110   Data           4  wm_wifi_oneshot.o(.data)
    gWifiSwitchChanTim                       0x2000011c   Data           4  wm_wifi_oneshot.o(.data)
    gWifiHandShakeTimOut                     0x20000120   Data           4  wm_wifi_oneshot.o(.data)
    gWifiRecvTimOut                          0x20000124   Data           4  wm_wifi_oneshot.o(.data)
    oneshot_special_sem                      0x20000128   Data           4  wm_wifi_oneshot.o(.data)
    gWifiRecvSem                             0x2000012c   Data           4  wm_wifi_oneshot.o(.data)
    gaucRawData                              0x20000130   Data           4  wm_wifi_oneshot.o(.data)
    oneshot_bss                              0x2000013c   Data           4  wm_wifi_oneshot.o(.data)
    chanCnt                                  0x20000140   Data           4  wm_wifi_oneshot.o(.data)
    chanRepeat                               0x20000144   Data           4  wm_wifi_oneshot.o(.data)
    gucbssidData                             0x20000148   Data           6  wm_wifi_oneshot.o(.data)
    gSrcMac                                  0x2000014e   Data           6  wm_wifi_oneshot.o(.data)
    oneshot_local_mac                        0x20000154   Data           6  wm_wifi_oneshot.o(.data)
    oneshot_dst_mac                          0x2000015a   Data           6  wm_wifi_oneshot.o(.data)
    airwifichan                              0x20000160   Data          17  wm_wifi_oneshot.o(.data)
    .data                                    0x20000174   Section       18  wm_oneshot_airkiss.o(.data)
    random4reply                             0x20000175   Data           1  wm_oneshot_airkiss.o(.data)
    airkiss_chan_cnt                         0x20000178   Data           4  wm_oneshot_airkiss.o(.data)
    airkiss_chan_bw40                        0x2000017c   Data           4  wm_oneshot_airkiss.o(.data)
    ak_bssid                                 0x20000180   Data           6  wm_oneshot_airkiss.o(.data)
    .data                                    0x20000188   Section       34  wm_oneshot_lsd.o(.data)
    lsd_scan_bss                             0x200001a0   Data           4  wm_oneshot_lsd.o(.data)
    .data                                    0x200001ac   Section     1844  wm_cmd.o(.data)
    last_wifi_mode                           0x200001b0   Data           1  wm_cmd.o(.data)
    net_up                                   0x200001b1   Data           1  wm_cmd.o(.data)
    printfFreq                               0x200001b2   Data           2  wm_cmd.o(.data)
    temAtStartUp                             0x200001b8   Data           4  wm_cmd.o(.data)
    default_sock_tmr                         0x200001bc   Data           4  wm_cmd.o(.data)
    uart1_delaytime                          0x200001c0   Data           4  wm_cmd.o(.data)
    at_ri_cmd_tbl                            0x200001f0   Data        1776  wm_cmd.o(.data)
    .data                                    0x200008e0   Section      160  wm_rtos.o(.data)
    uxTasksDeleted                           0x200008e8   Data           4  wm_rtos.o(.data)
    xIdleTaskHandle                          0x200008ec   Data           4  wm_rtos.o(.data)
    uxCurrentNumberOfTasks                   0x200008f0   Data           4  wm_rtos.o(.data)
    xTickCount                               0x200008f4   Data           4  wm_rtos.o(.data)
    uxTopUsedPriority                        0x200008f8   Data           4  wm_rtos.o(.data)
    uxTopReadyPriority                       0x200008fc   Data           4  wm_rtos.o(.data)
    xSchedulerRunning                        0x20000900   Data           4  wm_rtos.o(.data)
    uxSchedulerSuspended                     0x20000904   Data           4  wm_rtos.o(.data)
    uxMissedTicks                            0x20000908   Data           4  wm_rtos.o(.data)
    xMissedYield                             0x2000090c   Data           4  wm_rtos.o(.data)
    xNumOfOverflows                          0x20000910   Data           4  wm_rtos.o(.data)
    uxTaskNumber                             0x20000914   Data           4  wm_rtos.o(.data)
    xNextTaskUnblockTime                     0x20000918   Data           4  wm_rtos.o(.data)
    xTracing                                 0x2000091c   Data           4  wm_rtos.o(.data)
    uxPreviousTask                           0x20000920   Data           4  wm_rtos.o(.data)
    xTimerQueue                              0x20000924   Data           4  wm_rtos.o(.data)
    xFreeBytesRemaining                      0x20000928   Data           4  wm_rtos.o(.data)
    uxTopCoRoutineReadyPriority              0x20000930   Data           4  wm_rtos.o(.data)
    xCoRoutineTickCount                      0x20000934   Data           4  wm_rtos.o(.data)
    xLastTickCount                           0x20000938   Data           4  wm_rtos.o(.data)
    xPassedTicks                             0x2000093c   Data           4  wm_rtos.o(.data)
    uxCriticalNesting                        0x20000940   Data           4  wm_rtos.o(.data)
    xLastTime                                0x20000944   Data           4  wm_rtos.o(.data)
    xHeapHasBeenInitialised                  0x20000948   Data           4  wm_rtos.o(.data)
    pxDelayedTaskList                        0x2000094c   Data           4  wm_rtos.o(.data)
    pxOverflowDelayedTaskList                0x20000950   Data           4  wm_rtos.o(.data)
    pcTraceBuffer                            0x20000954   Data           4  wm_rtos.o(.data)
    pcTraceBufferStart                       0x20000958   Data           4  wm_rtos.o(.data)
    pcTraceBufferEnd                         0x2000095c   Data           4  wm_rtos.o(.data)
    pxCurrentTimerList                       0x20000960   Data           4  wm_rtos.o(.data)
    pxOverflowTimerList                      0x20000964   Data           4  wm_rtos.o(.data)
    pxDelayedCoRoutineList                   0x20000968   Data           4  wm_rtos.o(.data)
    pxOverflowDelayedCoRoutineList           0x2000096c   Data           4  wm_rtos.o(.data)
    xStart                                   0x20000970   Data           8  wm_rtos.o(.data)
    xEnd                                     0x20000978   Data           8  wm_rtos.o(.data)
    .data                                    0x20000980   Section      236  lwip2.0.3.o(.data)
    firstflag                                0x20000980   Data           1  lwip2.0.3.o(.data)
    dns_last_pcb_idx                         0x20000981   Data           1  lwip2.0.3.o(.data)
    dns_seqno                                0x20000982   Data           1  lwip2.0.3.o(.data)
    netif_num                                0x20000983   Data           1  lwip2.0.3.o(.data)
    tcp_timer                                0x20000986   Data           1  lwip2.0.3.o(.data)
    tcp_timer_ctr                            0x20000987   Data           1  lwip2.0.3.o(.data)
    flags                                    0x20000988   Data           1  lwip2.0.3.o(.data)
    recv_flags                               0x20000989   Data           1  lwip2.0.3.o(.data)
    dhcp_pcb_refcount                        0x2000098a   Data           1  lwip2.0.3.o(.data)
    etharp_cached_entry                      0x2000098b   Data           1  lwip2.0.3.o(.data)
    tcp_port                                 0x2000098e   Data           2  lwip2.0.3.o(.data)
    udp_port                                 0x20000990   Data           2  lwip2.0.3.o(.data)
    tcphdr_optlen                            0x20000992   Data           2  lwip2.0.3.o(.data)
    tcphdr_opt1len                           0x20000994   Data           2  lwip2.0.3.o(.data)
    tcp_optidx                               0x20000996   Data           2  lwip2.0.3.o(.data)
    recv_acked                               0x20000998   Data           2  lwip2.0.3.o(.data)
    tcplen                                   0x2000099a   Data           2  lwip2.0.3.o(.data)
    napt_curr_port                           0x2000099c   Data           2  lwip2.0.3.o(.data)
    napt_curr_id                             0x2000099e   Data           2  lwip2.0.3.o(.data)
    ip_reass_pbufcount                       0x200009a0   Data           2  lwip2.0.3.o(.data)
    ip_id                                    0x200009a2   Data           2  lwip2.0.3.o(.data)
    gre_info                                 0x200009a4   Data           3  lwip2.0.3.o(.data)
    dhcp_discover_request_options            0x200009b0   Data           4  lwip2.0.3.o(.data)
    dhcp_timeout_flag                        0x200009b4   Data           4  lwip2.0.3.o(.data)
    ethif                                    0x200009b8   Data           4  lwip2.0.3.o(.data)
    nif                                      0x200009bc   Data           4  lwip2.0.3.o(.data)
    ethif2                                   0x200009c0   Data           4  lwip2.0.3.o(.data)
    iss                                      0x200009c4   Data           4  lwip2.0.3.o(.data)
    xid                                      0x200009c8   Data           4  lwip2.0.3.o(.data)
    s_aliases                                0x200009cc   Data           4  lwip2.0.3.o(.data)
    s_hostent_addr                           0x200009d0   Data           4  lwip2.0.3.o(.data)
    raw_pcbs                                 0x200009dc   Data           4  lwip2.0.3.o(.data)
    tcphdr                                   0x200009f4   Data           4  lwip2.0.3.o(.data)
    tcphdr_opt2                              0x200009f8   Data           4  lwip2.0.3.o(.data)
    seqno                                    0x200009fc   Data           4  lwip2.0.3.o(.data)
    ackno                                    0x20000a00   Data           4  lwip2.0.3.o(.data)
    recv_data                                0x20000a04   Data           4  lwip2.0.3.o(.data)
    timeouts_last_time                       0x20000a10   Data           4  lwip2.0.3.o(.data)
    tcpip_tcp_timer_active                   0x20000a14   Data           4  lwip2.0.3.o(.data)
    reassdatagrams                           0x20000a18   Data           4  lwip2.0.3.o(.data)
    ip4_default_multicast_netif              0x20000a1c   Data           4  lwip2.0.3.o(.data)
    dhcp_pcb                                 0x20000a20   Data           4  lwip2.0.3.o(.data)
    allsystems                               0x20000a24   Data           4  lwip2.0.3.o(.data)
    allrouters                               0x20000a28   Data           4  lwip2.0.3.o(.data)
    tcpip_init_done                          0x20000a2c   Data           4  lwip2.0.3.o(.data)
    tcpip_init_done_arg                      0x20000a30   Data           4  lwip2.0.3.o(.data)
    mbox                                     0x20000a34   Data           4  lwip2.0.3.o(.data)
    select_cb_list                           0x20000a3c   Data           4  lwip2.0.3.o(.data)
    select_cb_ctr                            0x20000a40   Data           4  lwip2.0.3.o(.data)
    s_phostent_addr                          0x20000a44   Data           8  lwip2.0.3.o(.data)
    dns_servers                              0x20000a4c   Data           8  lwip2.0.3.o(.data)
    napt_table_4tcp                          0x20000a54   Data           8  lwip2.0.3.o(.data)
    napt_table_4udp                          0x20000a5c   Data           8  lwip2.0.3.o(.data)
    napt_table_4ic                           0x20000a64   Data           8  lwip2.0.3.o(.data)
    .data                                    0x20000a6c   Section        4  wm_http_compile.o(.data)
    http_client_mbox                         0x20000a6c   Data           4  wm_http_compile.o(.data)
    .data                                    0x20000a70   Section       24  ping.o(.data)
    ping_task_running                        0x20000a70   Data           1  ping.o(.data)
    ping_test_running                        0x20000a71   Data           1  ping.o(.data)
    ping_test_abort                          0x20000a72   Data           1  ping.o(.data)
    ping_msg_queue                           0x20000a74   Data           4  ping.o(.data)
    received_cnt                             0x20000a78   Data           4  ping.o(.data)
    send_cnt                                 0x20000a7c   Data           4  ping.o(.data)
    ping_test_stop_timer                     0x20000a80   Data           4  ping.o(.data)
    ping_test_abort_timer                    0x20000a84   Data           4  ping.o(.data)
    .data                                    0x20000a88   Section      244  wm_matrixssl_compile.o(.data)
    gMatrixsslPrng                           0x20000a88   Data           4  wm_matrixssl_compile.o(.data)
    sessionChronList                         0x20000a8c   Data           8  wm_matrixssl_compile.o(.data)
    supportedCiphers                         0x20000a94   Data         160  wm_matrixssl_compile.o(.data)
    g_config                                 0x20000b34   Data          32  wm_matrixssl_compile.o(.data)
    salt                                     0x20000b54   Data          40  wm_matrixssl_compile.o(.data)
    .data                                    0x20000b7c   Section       16  wm_socket_fwup.o(.data)
    current_offset                           0x20000b7c   Data           2  wm_socket_fwup.o(.data)
    session_id                               0x20000b80   Data           4  wm_socket_fwup.o(.data)
    current_pack                             0x20000b84   Data           8  wm_socket_fwup.o(.data)
    .data                                    0x20000b8c   Section       20  httpd.o(.data)
    restart_tmr                              0x20000b94   Data           4  httpd.o(.data)
    web_pcb                                  0x20000b98   Data           4  httpd.o(.data)
    session_id                               0x20000b9c   Data           4  httpd.o(.data)
    .data                                    0x20000ba0   Section       20  web.o(.data)
    scan_done                                0x20000ba0   Data           1  web.o(.data)
    .data                                    0x20000bb4   Section       64  web.o(.data)
    .data                                    0x20000bf4   Section        4  ap.o(.data)
    .data                                    0x20000bf8   Section       20  random.o(.data)
    input_rotate                             0x20000bf8   Data           4  random.o(.data)
    pool_pos                                 0x20000bfc   Data           4  random.o(.data)
    entropy                                  0x20000c00   Data           4  random.o(.data)
    total_collected                          0x20000c04   Data           4  random.o(.data)
    count                                    0x20000c08   Data           4  random.o(.data)
    .data                                    0x20000c0c   Section       80  wpa_supplicant.o(.data)
    eloop                                    0x20000c10   Data           8  wpa_supplicant.o(.data)
    .data                                    0x20000c5c   Section      120  tls_wl_core.o(.data)
    g_rx_isr_cnt                             0x20000c5c   Data           4  tls_wl_core.o(.data)
    .data                                    0x20000cd4   Section       68  tls_wl_hw.o(.data)
    .data                                    0x20000d18   Section       96  tls_wl_hw.o(.data)
    wl_rates                                 0x20000d18   Data          96  tls_wl_hw.o(.data)
    .data                                    0x20000d78   Section      168  tls_wl_hw.o(.data)
    wl_channels                              0x20000d78   Data         168  tls_wl_hw.o(.data)
    .data                                    0x20000e20   Section       24  tls_wl_if.o(.data)
    wl_errno                                 0x20000e24   Data           4  tls_wl_if.o(.data)
    err_info                                 0x20000e28   Data          16  tls_wl_if.o(.data)
    .data                                    0x20000e38   Section      532  tls_wl_rf.o(.data)
    .data                                    0x2000104c   Section       20  tls_wl_tx.o(.data)
    .data                                    0x20001060   Section       16  wm_wifi_api.o(.data)
    g_wifiListenMode                         0x20001068   Data           4  wm_wifi_api.o(.data)
    g_wifiSpecial                            0x2000106c   Data           4  wm_wifi_api.o(.data)
    .data                                    0x20001070   Section       28  wm_wifi_oneshot_api.o(.data)
    gucMacMaskBit                            0x20001070   Data           1  wm_wifi_oneshot_api.o(.data)
    gucCurMac                                0x20001071   Data           1  wm_wifi_oneshot_api.o(.data)
    gucProbeSeq                              0x20001072   Data           1  wm_wifi_oneshot_api.o(.data)
    gucProbeSeqTotalTmp                      0x20001073   Data           1  wm_wifi_oneshot_api.o(.data)
    gucProbeDataType                         0x20001074   Data           1  wm_wifi_oneshot_api.o(.data)
    gucProbeRawLen                           0x20001075   Data           1  wm_wifi_oneshot_api.o(.data)
    ucEnterFlag                              0x20001076   Data           1  wm_wifi_oneshot_api.o(.data)
    gusChanId                                0x20001078   Data           2  wm_wifi_oneshot_api.o(.data)
    gucDataResolvOk                          0x2000107c   Data           4  wm_wifi_oneshot_api.o(.data)
    gucProbeInfoLen                          0x20001080   Data           6  wm_wifi_oneshot_api.o(.data)
    gauMacAddr                               0x20001086   Data           6  wm_wifi_oneshot_api.o(.data)
    .data                                    0x2000108c   Section      136  litepoint.o(.data)
    sn                                       0x20001094   Data           4  litepoint.o(.data)
    .data                                    0x20001114   Section        4  tls_wl_bss.o(.data)
    .data                                    0x20001118   Section      796  tls_wl_rc.o(.data)
    bgn_ratetable                            0x20001118   Data         516  tls_wl_rc.o(.data)
    ratetable411n                            0x2000131c   Data         256  tls_wl_rc.o(.data)
    rc_11g_rssi_level                        0x2000141c   Data          12  tls_wl_rc.o(.data)
    rc_11b_rssi_level                        0x20001428   Data          12  tls_wl_rc.o(.data)
    .data                                    0x20001434   Section        8  tls_wl_rx.o(.data)
    mgmtseqCtrl                              0x20001438   Data           4  tls_wl_rx.o(.data)
    .data                                    0x2000143c   Section     2492  tls_rf_tx_iq.o(.data)
    .data                                    0x20001df8   Section      352  tx_lo_cal.o(.data)
    .data                                    0x20001f58   Section        4  tls_rf_fft.o(.data)
    .data                                    0x20001f5c   Section        4  tls_rf_fft.o(.data)
    .data                                    0x20001f60   Section        4  rand.o(.data)
    _rand_state                              0x20001f60   Data           4  rand.o(.data)
    .data                                    0x20001f64   Section        4  errno.o(.data)
    _errno                                   0x20001f64   Data           4  errno.o(.data)
    .data                                    0x20001f68   Section        4  mvars.o(.data)
    .data                                    0x20001f6c   Section        4  mvars.o(.data)
    .bss                                     0x20001f70   Section     1024  startup_venus.o(.bss)
    .bss                                     0x20002370   Section      384  retarget.o(.bss)
    std_libspace                             0x20002370   Data         384  retarget.o(.bss)
    .bss                                     0x200024f0   Section     4800  wm_main.o(.bss)
    .bss                                     0x200037b0   Section     1024  tls_sys.o(.bss)
    sys_task_stk                             0x200037b0   Data        1024  tls_sys.o(.bss)
    .bss                                     0x20003bb0   Section     1944  wm_driver.o(.bss)
    timer_context                            0x20003bb0   Data          48  wm_driver.o(.bss)
    gpio_context                             0x20003be0   Data         376  wm_driver.o(.bss)
    spi_scheduler_stk                        0x20003efc   Data         512  wm_driver.o(.bss)
    i2c_transfer                             0x200041a0   Data          20  wm_driver.o(.bss)
    dma_context                              0x2000424c   Data         160  wm_driver.o(.bss)
    tls_i2s_port                             0x20004300   Data          52  wm_driver.o(.bss)
    .bss                                     0x20004348   Section     3828  wm_common.o(.bss)
    fwup_task_stk                            0x20004348   Data        1024  wm_common.o(.bss)
    task_mbox                                0x200047b8   Data          32  wm_common.o(.bss)
    flash_param                              0x200048b0   Data         828  wm_common.o(.bss)
    sram_param                               0x20004bec   Data         808  wm_common.o(.bss)
    .bss                                     0x2000523c   Section      776  dhcp_server.o(.bss)
    DhcpServer                               0x2000523c   Data         228  dhcp_server.o(.bss)
    DhcpMsg                                  0x20005320   Data         548  dhcp_server.o(.bss)
    .bss                                     0x20005544   Section       40  dns_server.o(.bss)
    DnsServer                                0x20005544   Data          40  dns_server.o(.bss)
    .bss                                     0x2000556c   Section     6632  wm_wifi_oneshot.o(.bss)
    gucCustomData                            0x200055ce   Data         195  wm_wifi_oneshot.o(.bss)
    airchantype                              0x20005691   Data          17  wm_wifi_oneshot.o(.bss)
    OneshotTaskStk                           0x200056a4   Data        4096  wm_wifi_oneshot.o(.bss)
    oneshot_buf                              0x200066a4   Data        1200  wm_wifi_oneshot.o(.bss)
    OneshotSpecialTaskStk                    0x20006b54   Data        1024  wm_wifi_oneshot.o(.bss)
    .bss                                     0x20006f54   Section      232  wm_oneshot_airkiss.o(.bss)
    pakcontext                               0x20006f54   Data         232  wm_oneshot_airkiss.o(.bss)
    .bss                                     0x2000703c   Section      780  wm_oneshot_lsd.o(.bss)
    .bss                                     0x20007348   Section      636  wm_cmd.o(.bss)
    .bss                                     0x200075c4   Section     2000  wm_cmd.o(.bss)
    .bss                                     0x20007d98   Section    13844  wm_rtos.o(.bss)
    pxReadyTasksLists                        0x20007d98   Data        1260  wm_rtos.o(.bss)
    xDelayedTaskList1                        0x20008284   Data          20  wm_rtos.o(.bss)
    xDelayedTaskList2                        0x20008298   Data          20  wm_rtos.o(.bss)
    xPendingReadyList                        0x200082ac   Data          20  wm_rtos.o(.bss)
    xTasksWaitingTermination                 0x200082c0   Data          20  wm_rtos.o(.bss)
    xSuspendedTaskList                       0x200082d4   Data          20  wm_rtos.o(.bss)
    pcStatusString                           0x200082e8   Data          50  wm_rtos.o(.bss)
    xActiveTimerList1                        0x2000831c   Data          20  wm_rtos.o(.bss)
    xActiveTimerList2                        0x20008330   Data          20  wm_rtos.o(.bss)
    xHeap                                    0x20008348   Data       12288  wm_rtos.o(.bss)
    pxReadyCoRoutineLists                    0x2000b348   Data          40  wm_rtos.o(.bss)
    xDelayedCoRoutineList1                   0x2000b370   Data          20  wm_rtos.o(.bss)
    xDelayedCoRoutineList2                   0x2000b384   Data          20  wm_rtos.o(.bss)
    xPendingReadyCoRoutineList               0x2000b398   Data          20  wm_rtos.o(.bss)
    .bss                                     0x2000b3ac   Section     4576  lwip2.0.3.o(.bss)
    str                                      0x2000b3fc   Data          16  lwip2.0.3.o(.bss)
    s_hostent                                0x2000b40c   Data          20  lwip2.0.3.o(.bss)
    s_hostname                               0x2000b420   Data         257  lwip2.0.3.o(.bss)
    dns_pcbs                                 0x2000b574   Data          16  lwip2.0.3.o(.bss)
    dns_table                                0x2000b584   Data        1088  lwip2.0.3.o(.bss)
    dns_requests                             0x2000b9c4   Data          48  lwip2.0.3.o(.bss)
    loop_netif                               0x2000b9f4   Data          84  lwip2.0.3.o(.bss)
    inseg                                    0x2000bb20   Data          16  lwip2.0.3.o(.bss)
    next_timeout                             0x2000bb48   Data          20  lwip2.0.3.o(.bss)
    arp_table                                0x2000bb90   Data         240  lwip2.0.3.o(.bss)
    netif_status_event                       0x2000c480   Data          12  lwip2.0.3.o(.bss)
    sockets                                  0x2000c4ec   Data         160  lwip2.0.3.o(.bss)
    .bss                                     0x2000c58c   Section     1024  wm_http_compile.o(.bss)
    httpClientStk                            0x2000c58c   Data        1024  wm_http_compile.o(.bss)
    .bss                                     0x2000c98c   Section     1096  ping.o(.bss)
    TaskPingStk                              0x2000c98c   Data        1024  ping.o(.bss)
    g_ping_para                              0x2000cd8c   Data          72  ping.o(.bss)
    .bss                                     0x2000cdd4   Section     3456  wm_matrixssl_compile.o(.bss)
    sessionTable                             0x2000cdd4   Data        3456  wm_matrixssl_compile.o(.bss)
    .bss                                     0x2000db54   Section      240  fs.o(.bss)
    .bss                                     0x2000dc44   Section      148  random.o(.bss)
    pool                                     0x2000dc44   Data         128  random.o(.bss)
    dummy_key                                0x2000dcc4   Data          20  random.o(.bss)
    .bss                                     0x2000dcd8   Section     8704  wpa_supplicant.o(.bss)
    .bss                                     0x2000fed8   Section     4196  tls_wl_core.o(.bss)
    .bss                                     0x20010f3c   Section      216  tls_wl_tx.o(.bss)
    .bss                                     0x20011014   Section     1160  wm_wifi_oneshot_api.o(.bss)
    gauProbeOrgData                          0x20011014   Data         256  wm_wifi_oneshot_api.o(.bss)
    gauProbeRawData                          0x20011114   Data         256  wm_wifi_oneshot_api.o(.bss)
    gucCustomData                            0x20011214   Data         390  wm_wifi_oneshot_api.o(.bss)
    gstOneShotData                           0x2001139c   Data         128  wm_wifi_oneshot_api.o(.bss)
    gstRawData                               0x2001141c   Data         128  wm_wifi_oneshot_api.o(.bss)
    .bss                                     0x2001149c   Section       33  tls_wl_util.o(.bss)
    ssid_txt                                 0x2001149c   Data          33  tls_wl_util.o(.bss)
    .bss                                     0x200114c0   Section     2048  tls_rf_tx_iq.o(.bss)
    .bss                                     0x20011cc0   Section     1024  tx_lo_cal.o(.bss)
    .bss                                     0x200120c0   Section       33  common.o(.bss)
    ssid_txt                                 0x200120c0   Data          33  common.o(.bss)
    HEAP                                     0x200120e8   Section    106496  startup_venus.o(HEAP)

    Global Symbols

    Symbol Name                              Value     Ov Type        Size  Object(Section)

    BuildAttributes$$THM_ISAv4$P$D$K$B$S$PE$A:L22UL41UL21$X:L11$S22US41US21$IEEE1$IW$USESV6$~STKCKD$USESV7$~SHL$OTIME$ROPI$IEEEX$EBA8$MICROLIB$REQ8$PRES8$EABIv2 0x00000000   Number         0  anon$$obj.o ABSOLUTE
    __ARM_use_no_argv                        0x00000000   Number         0  wm_main.o ABSOLUTE
    _printf_a                                0x00000000   Number         0  stubs.o ABSOLUTE
    _printf_c                                0x00000000   Number         0  stubs.o ABSOLUTE
    _printf_charcount                        0x00000000   Number         0  stubs.o ABSOLUTE
    _printf_d                                0x00000000   Number         0  stubs.o ABSOLUTE
    _printf_e                                0x00000000   Number         0  stubs.o ABSOLUTE
    _printf_f                                0x00000000   Number         0  stubs.o ABSOLUTE
    _printf_flags                            0x00000000   Number         0  stubs.o ABSOLUTE
    _printf_fp_dec                           0x00000000   Number         0  stubs.o ABSOLUTE
    _printf_fp_hex                           0x00000000   Number         0  stubs.o ABSOLUTE
    _printf_g                                0x00000000   Number         0  stubs.o ABSOLUTE
    _printf_i                                0x00000000   Number         0  stubs.o ABSOLUTE
    _printf_int_dec                          0x00000000   Number         0  stubs.o ABSOLUTE
    _printf_l                                0x00000000   Number         0  stubs.o ABSOLUTE
    _printf_lc                               0x00000000   Number         0  stubs.o ABSOLUTE
    _printf_ll                               0x00000000   Number         0  stubs.o ABSOLUTE
    _printf_lld                              0x00000000   Number         0  stubs.o ABSOLUTE
    _printf_lli                              0x00000000   Number         0  stubs.o ABSOLUTE
    _printf_llo                              0x00000000   Number         0  stubs.o ABSOLUTE
    _printf_llu                              0x00000000   Number         0  stubs.o ABSOLUTE
    _printf_llx                              0x00000000   Number         0  stubs.o ABSOLUTE
    _printf_longlong_dec                     0x00000000   Number         0  stubs.o ABSOLUTE
    _printf_longlong_hex                     0x00000000   Number         0  stubs.o ABSOLUTE
    _printf_longlong_oct                     0x00000000   Number         0  stubs.o ABSOLUTE
    _printf_ls                               0x00000000   Number         0  stubs.o ABSOLUTE
    _printf_mbtowc                           0x00000000   Number         0  stubs.o ABSOLUTE
    _printf_n                                0x00000000   Number         0  stubs.o ABSOLUTE
    _printf_o                                0x00000000   Number         0  stubs.o ABSOLUTE
    _printf_p                                0x00000000   Number         0  stubs.o ABSOLUTE
    _printf_percent                          0x00000000   Number         0  stubs.o ABSOLUTE
    _printf_pre_padding                      0x00000000   Number         0  stubs.o ABSOLUTE
    _printf_return_value                     0x00000000   Number         0  stubs.o ABSOLUTE
    _printf_s                                0x00000000   Number         0  stubs.o ABSOLUTE
    _printf_sizespec                         0x00000000   Number         0  stubs.o ABSOLUTE
    _printf_str                              0x00000000   Number         0  stubs.o ABSOLUTE
    _printf_truncate_signed                  0x00000000   Number         0  stubs.o ABSOLUTE
    _printf_truncate_unsigned                0x00000000   Number         0  stubs.o ABSOLUTE
    _printf_u                                0x00000000   Number         0  stubs.o ABSOLUTE
    _printf_wc                               0x00000000   Number         0  stubs.o ABSOLUTE
    _printf_wctomb                           0x00000000   Number         0  stubs.o ABSOLUTE
    _printf_widthprec                        0x00000000   Number         0  stubs.o ABSOLUTE
    _printf_x                                0x00000000   Number         0  stubs.o ABSOLUTE
    __Vectors_Size                           0x000000ec   Number         0  startup_venus.o ABSOLUTE
    __Vectors                                0x08010100   Data           4  startup_venus.o(RESET)
    __Vectors_End                            0x080101ec   Data           0  startup_venus.o(RESET)
    __main                                   0x080101ed   Thumb Code     0  entry.o(.ARM.Collect$$$$00000000)
    _main_stk                                0x080101ed   Thumb Code     0  entry2.o(.ARM.Collect$$$$00000001)
    _main_scatterload                        0x080101f1   Thumb Code     0  entry5.o(.ARM.Collect$$$$00000004)
    __main_after_scatterload                 0x080101f5   Thumb Code     0  entry5.o(.ARM.Collect$$$$00000004)
    _main_init                               0x080101f5   Thumb Code     0  entry7.o(.ARM.Collect$$$$00000007)
    SVC_Handler                              0x08010201   Thumb Code    32  wm_rtos.o(.emb_text)
    vPortStartFirstTask                      0x08010225   Thumb Code    28  wm_rtos.o(.emb_text)
    PendSV_Handler                           0x08010245   Thumb Code    56  wm_rtos.o(.emb_text)
    portDISABLE_INTERRUPTS                   0x08010281   Thumb Code     4  wm_rtos.o(.emb_text)
    portENABLE_INTERRUPTS                    0x08010285   Thumb Code     4  wm_rtos.o(.emb_text)
    ulSetInterruptMaskFromISR                0x08010289   Thumb Code     4  wm_rtos.o(.emb_text)
    vClearInterruptMaskFromISR               0x0801028d   Thumb Code     4  wm_rtos.o(.emb_text)
    portGET_IPSR                             0x08010291   Thumb Code     6  wm_rtos.o(.emb_text)
    UserMain                                 0x08010299   Thumb Code     6  main.o(.text)
    Reset_Handler                            0x080102b1   Thumb Code    16  startup_venus.o(.text)
    NMI_Handler                              0x080102c1   Thumb Code     2  startup_venus.o(.text)
    HardFault_Handler                        0x080102c3   Thumb Code     2  startup_venus.o(.text)
    MemManage_Handler                        0x080102c5   Thumb Code     2  startup_venus.o(.text)
    BusFault_Handler                         0x080102c7   Thumb Code     2  startup_venus.o(.text)
    UsageFault_Handler                       0x080102c9   Thumb Code     2  startup_venus.o(.text)
    DebugMon_Handler                         0x080102cd   Thumb Code     2  startup_venus.o(.text)
    DMA_BRUST_IRQHandler                     0x080102cf   Thumb Code     0  startup_venus.o(.text)
    FLASH_IRQHandler                         0x080102cf   Thumb Code     0  startup_venus.o(.text)
    PMU_6IRQHandler                          0x080102cf   Thumb Code     0  startup_venus.o(.text)
    PMU_IRQHandler                           0x080102cf   Thumb Code     0  startup_venus.o(.text)
    RSV_IRQHandler                           0x080102cf   Thumb Code     0  startup_venus.o(.text)
    SDIO_RX_CMD_IRQHandler                   0x080102cf   Thumb Code     0  startup_venus.o(.text)
    __user_libspace                          0x080102d9   Thumb Code     4  retarget.o(.text)
    sendchar                                 0x080102dd   Thumb Code    44  retarget.o(.text)
    fputc                                    0x08010309   Thumb Code     2  retarget.o(.text)
    ferror                                   0x0801030b   Thumb Code     6  retarget.o(.text)
    Int2Str                                  0x08010311   Thumb Code   204  retarget.o(.text)
    wm_vprintf                               0x080104a3   Thumb Code   782  retarget.o(.text)
    wm_printf                                0x080107b1   Thumb Code    20  retarget.o(.text)
    _ttywrch                                 0x080107c5   Thumb Code     2  retarget.o(.text)
    _sys_exit                                0x080107c7   Thumb Code     2  retarget.o(.text)
    NVIC_PriorityGroupConfig                 0x08010819   Thumb Code    10  misc.o(.text)
    NVIC_Init                                0x08010823   Thumb Code    92  misc.o(.text)
    NVIC_Configration                        0x0801087f   Thumb Code    30  misc.o(.text)
    NVIC_SetVectorTable                      0x0801089d   Thumb Code    12  misc.o(.text)
    NVIC_SystemLPConfig                      0x080108a9   Thumb Code    24  misc.o(.text)
    SysTick_CLKSourceConfig                  0x080108c1   Thumb Code    24  misc.o(.text)
    tls_os_timer_init                        0x080108e9   Thumb Code    68  wm_main.o(.text)
    vApplicationIdleHook                     0x0801092d   Thumb Code    10  wm_main.o(.text)
    SystemInit                               0x08010937   Thumb Code     2  wm_main.o(.text)
    wm_gpio_config                           0x08010939   Thumb Code    58  wm_main.o(.text)
    task_start                               0x08010973   Thumb Code   174  wm_main.o(.text)
    main                                     0x08010a21   Thumb Code    62  wm_main.o(.text)
    disp_version_info                        0x08010a5f   Thumb Code     2  wm_main.o(.text)
    tls_auto_reconnect                       0x08010b3b   Thumb Code   158  tls_sys.o(.text)
    tls_sys_task                             0x08010bd9   Thumb Code   184  tls_sys.o(.text)
    tls_sys_send_msg                         0x08010c91   Thumb Code    36  tls_sys.o(.text)
    tls_sys_auto_mode_run                    0x08010cb5   Thumb Code     6  tls_sys.o(.text)
    tls_sys_init                             0x08010d33   Thumb Code    56  tls_sys.o(.text)
    tls_sys_clk_get                          0x08010e25   Thumb Code    36  wm_driver.o(.text)
    Uart0Init                                0x08010e49   Thumb Code    74  wm_driver.o(.text)
    UartRegInit                              0x08010e93   Thumb Code   124  wm_driver.o(.text)
    tls_uart_check_baudrate                  0x08010f0f   Thumb Code    28  wm_driver.o(.text)
    tls_uart_get_baud_rate                   0x08010f2b   Thumb Code    14  wm_driver.o(.text)
    tls_uart_set_baud_rate_inside            0x08010f39   Thumb Code    66  wm_driver.o(.text)
    tls_uart_set_parity_inside               0x08010f7b   Thumb Code    76  wm_driver.o(.text)
    tls_uart_get_parity                      0x08010fc7   Thumb Code     4  wm_driver.o(.text)
    tls_uart_set_data_bits                   0x08010fcb   Thumb Code    78  wm_driver.o(.text)
    tls_uart_get_data_bits                   0x08011019   Thumb Code     4  wm_driver.o(.text)
    tls_uart_set_stop_bits_inside            0x0801101d   Thumb Code    34  wm_driver.o(.text)
    tls_uart_get_stop_bits                   0x0801103f   Thumb Code     4  wm_driver.o(.text)
    tls_uart_set_flow_ctrl                   0x08011043   Thumb Code    30  wm_driver.o(.text)
    tls_uart_set_fc_status                   0x080110f9   Thumb Code    72  wm_driver.o(.text)
    tls_uart_rx_disable                      0x08011141   Thumb Code    12  wm_driver.o(.text)
    tls_uart_rx_enable                       0x0801114d   Thumb Code    12  wm_driver.o(.text)
    tls_uart_config                          0x08011159   Thumb Code   106  wm_driver.o(.text)
    tls_uart_poll_put_char                   0x08011229   Thumb Code    36  wm_driver.o(.text)
    tls_uart_poll_get_char                   0x0801124d   Thumb Code    18  wm_driver.o(.text)
    tls_uart_tx_remain_len                   0x08011269   Thumb Code    38  wm_driver.o(.text)
    tls_uart_fill_buf                        0x0801128f   Thumb Code    94  wm_driver.o(.text)
    tls_uart_free_tx_sent_data               0x080112ed   Thumb Code    92  wm_driver.o(.text)
    tls_uart_tx_chars_start                  0x08011349   Thumb Code   168  wm_driver.o(.text)
    tls_set_uart_rx_status                   0x080113f1   Thumb Code    90  wm_driver.o(.text)
    UART0_IRQHandler                         0x0801144b   Thumb Code   166  wm_driver.o(.text)
    UART1_IRQHandler                         0x080114f1   Thumb Code   278  wm_driver.o(.text)
    UART2_IRQHandler                         0x08011607   Thumb Code   222  wm_driver.o(.text)
    tls_irq_enable                           0x080116e5   Thumb Code    22  wm_driver.o(.text)
    tls_uart_tx_callback_register            0x080116fb   Thumb Code    30  wm_driver.o(.text)
    tls_irq_disable                          0x08011719   Thumb Code     6  wm_driver.o(.text)
    tls_uart_port_init                       0x0801171f   Thumb Code   244  wm_driver.o(.text)
    tls_uart_rx_callback_register            0x08011813   Thumb Code    30  wm_driver.o(.text)
    tls_uart_read                            0x08011831   Thumb Code   122  wm_driver.o(.text)
    tls_dma_start                            0x080118ab   Thumb Code    70  wm_driver.o(.text)
    tls_dma_irq_register                     0x080118f1   Thumb Code    72  wm_driver.o(.text)
    tls_dma_request                          0x08011939   Thumb Code    90  wm_driver.o(.text)
    tls_uart_dma_write                       0x08011993   Thumb Code   170  wm_driver.o(.text)
    tls_uart_write_async                     0x08011a3d   Thumb Code    58  wm_driver.o(.text)
    tls_uart_tx_length                       0x08011a77   Thumb Code    18  wm_driver.o(.text)
    tls_uart_write                           0x08011a89   Thumb Code   160  wm_driver.o(.text)
    tls_uart_set_parity                      0x08011b29   Thumb Code    34  wm_driver.o(.text)
    tls_uart_set_baud_rate                   0x08011b4b   Thumb Code    34  wm_driver.o(.text)
    tls_uart_set_stop_bits                   0x08011b6d   Thumb Code    34  wm_driver.o(.text)
    tls_uart_dma_off                         0x08011b8f   Thumb Code    26  wm_driver.o(.text)
    TIM0_IRQHandler                          0x08011bd7   Thumb Code     4  wm_driver.o(.text)
    TIM1_IRQHandler                          0x08011bdb   Thumb Code     4  wm_driver.o(.text)
    TIM2_IRQHandler                          0x08011bdf   Thumb Code     4  wm_driver.o(.text)
    TIM3_IRQHandler                          0x08011be3   Thumb Code     4  wm_driver.o(.text)
    TIM4_IRQHandler                          0x08011be7   Thumb Code     4  wm_driver.o(.text)
    TIM5_IRQHandler                          0x08011beb   Thumb Code     4  wm_driver.o(.text)
    tls_timer_create                         0x08011bef   Thumb Code   176  wm_driver.o(.text)
    tls_timer_start                          0x08011c9f   Thumb Code    44  wm_driver.o(.text)
    tls_timer_stop                           0x08011ccb   Thumb Code    46  wm_driver.o(.text)
    tls_timer_change                         0x08011cf9   Thumb Code    44  wm_driver.o(.text)
    tls_timer_destroy                        0x08011d25   Thumb Code    44  wm_driver.o(.text)
    tls_delay_via_timer                      0x08011d51   Thumb Code    94  wm_driver.o(.text)
    tls_dma_init                             0x08011de5   Thumb Code    12  wm_driver.o(.text)
    spiWaitIdle                              0x08011e3b   Thumb Code    32  wm_driver.o(.text)
    tls_dma_stop                             0x08011e5b   Thumb Code    52  wm_driver.o(.text)
    tls_dma_free                             0x08011e8f   Thumb Code    72  wm_driver.o(.text)
    tls_dma_wait_complt                      0x08011ed7   Thumb Code    48  wm_driver.o(.text)
    tls_spi_trans_type                       0x08012201   Thumb Code    32  wm_driver.o(.text)
    SPI_LS_IRQHandler                        0x08012575   Thumb Code    96  wm_driver.o(.text)
    tls_spi_setup                            0x080125d5   Thumb Code   126  wm_driver.o(.text)
    tls_spi_async                            0x08012653   Thumb Code   126  wm_driver.o(.text)
    tls_spi_sync                             0x080126d1   Thumb Code    62  wm_driver.o(.text)
    tls_spi_read_with_cmd                    0x0801270f   Thumb Code   164  wm_driver.o(.text)
    tls_spi_read                             0x080127b3   Thumb Code   240  wm_driver.o(.text)
    tls_spi_write                            0x080128a3   Thumb Code   220  wm_driver.o(.text)
    tls_spi_write_with_cmd                   0x0801297f   Thumb Code   154  wm_driver.o(.text)
    tls_spi_init                             0x08012a19   Thumb Code   256  wm_driver.o(.text)
    tls_spi_exit                             0x08012b19   Thumb Code     6  wm_driver.o(.text)
    tls_gpio_write                           0x08012b1f   Thumb Code    76  wm_driver.o(.text)
    tls_io_cfg_set                           0x08012b6b   Thumb Code   378  wm_driver.o(.text)
    tls_gpio_cfg                             0x08012ce5   Thumb Code   104  wm_driver.o(.text)
    tls_spi_slave_sel                        0x08012d4d   Thumb Code    36  wm_driver.o(.text)
    tls_set_rtc                              0x08012d71   Thumb Code    54  wm_driver.o(.text)
    tls_get_rtc                              0x08012da7   Thumb Code    48  wm_driver.o(.text)
    PMU_RTC_IRQHandler                       0x08012dd7   Thumb Code    28  wm_driver.o(.text)
    tls_rtc_isr_register                     0x08012df3   Thumb Code    12  wm_driver.o(.text)
    tls_rtc_timer_start                      0x08012dff   Thumb Code    56  wm_driver.o(.text)
    tls_rtc_timer_stop                       0x08012e37   Thumb Code    20  wm_driver.o(.text)
    PWM_IRQHandler                           0x08012e4b   Thumb Code    14  wm_driver.o(.text)
    tls_pwm_isr_register                     0x08012e59   Thumb Code    12  wm_driver.o(.text)
    tls_pwm_duty_config                      0x08012e65   Thumb Code    54  wm_driver.o(.text)
    tls_pwm_freq_config                      0x08012e9b   Thumb Code    94  wm_driver.o(.text)
    tls_pwm_out_mode_config                  0x08012ef9   Thumb Code   232  wm_driver.o(.text)
    tls_pwm_cnt_type_config                  0x08012fe1   Thumb Code   152  wm_driver.o(.text)
    tls_pwm_loop_mode_config                 0x08013079   Thumb Code    84  wm_driver.o(.text)
    tls_pwm_out_inverse_cmd                  0x080130cd   Thumb Code    62  wm_driver.o(.text)
    tls_pwm_stoptime_by_period_config        0x0801310b   Thumb Code    54  wm_driver.o(.text)
    tls_pwm_output_en_cmd                    0x08013141   Thumb Code    60  wm_driver.o(.text)
    tls_pwm_deadzone_config                  0x0801317d   Thumb Code   132  wm_driver.o(.text)
    tls_pwm_capture_inverse_cmd              0x08013201   Thumb Code    60  wm_driver.o(.text)
    tls_pwm_brake_mode_config                0x0801323d   Thumb Code    62  wm_driver.o(.text)
    tls_pwm_capture_mode_config              0x0801327b   Thumb Code    40  wm_driver.o(.text)
    tls_pwm_stoptime_irq_cmd                 0x080132a3   Thumb Code    52  wm_driver.o(.text)
    tls_pwm_capture_irq_type_config          0x080132d7   Thumb Code   216  wm_driver.o(.text)
    tls_pwm_out_init                         0x080133af   Thumb Code   166  wm_driver.o(.text)
    tls_pwm_cap_init                         0x08013455   Thumb Code    78  wm_driver.o(.text)
    tls_pwm_start                            0x080134a3   Thumb Code    38  wm_driver.o(.text)
    tls_pwm_stop                             0x080134c9   Thumb Code    28  wm_driver.o(.text)
    tls_pwm_freq_set                         0x080134e5   Thumb Code    54  wm_driver.o(.text)
    tls_pwm_duty_set                         0x0801351b   Thumb Code     8  wm_driver.o(.text)
    tls_pwm_init                             0x08013523   Thumb Code   106  wm_driver.o(.text)
    tls_irq_handler_dummy                    0x0801358d   Thumb Code     2  wm_driver.o(.text)
    tls_irq_init                             0x0801358f   Thumb Code    26  wm_driver.o(.text)
    tls_irq_register_handler                 0x080135a9   Thumb Code    52  wm_driver.o(.text)
    OS_CPU_IRQ_ISR_Handler                   0x080135dd   Thumb Code    76  wm_driver.o(.text)
    tls_i2c_init                             0x08013629   Thumb Code    68  wm_driver.o(.text)
    tls_i2c_stop                             0x0801366d   Thumb Code    16  wm_driver.o(.text)
    tls_i2c_wait_ack                         0x0801367d   Thumb Code    56  wm_driver.o(.text)
    tls_i2c_write_byte                       0x080136b5   Thumb Code    26  wm_driver.o(.text)
    tls_i2c_read_byte                        0x080136cf   Thumb Code    34  wm_driver.o(.text)
    wm_i2c_start_write_it                    0x080136f1   Thumb Code    44  wm_driver.o(.text)
    wm_i2c_start_read_it                     0x0801371d   Thumb Code    42  wm_driver.o(.text)
    wm_i2c_transfer_done_register            0x08013747   Thumb Code     8  wm_driver.o(.text)
    I2C_IRQHandler                           0x0801374f   Thumb Code   214  wm_driver.o(.text)
    hspi_rx_init                             0x08013825   Thumb Code    64  wm_driver.o(.text)
    hspi_tx_init                             0x08013865   Thumb Code    60  wm_driver.o(.text)
    hspi_free_rxdesc                         0x080138a1   Thumb Code    14  wm_driver.o(.text)
    SDIO_RX_IRQHandler                       0x080138af   Thumb Code   102  wm_driver.o(.text)
    SDIO_TX_IRQHandler                       0x08013915   Thumb Code    56  wm_driver.o(.text)
    SDIO_TX_CMD_IRQHandler                   0x0801394d   Thumb Code    32  wm_driver.o(.text)
    SPI_HS_IRQHandler                        0x0801396d   Thumb Code     6  wm_driver.o(.text)
    hspi_regs_cfg                            0x08013973   Thumb Code    28  wm_driver.o(.text)
    sdio_init_cis                            0x0801398f   Thumb Code   108  wm_driver.o(.text)
    hsdio_regs_cfg                           0x080139fb   Thumb Code    44  wm_driver.o(.text)
    tls_slave_spi_init                       0x08013a27   Thumb Code   112  wm_driver.o(.text)
    tls_set_high_speed_interface_type        0x08013a97   Thumb Code    14  wm_driver.o(.text)
    tls_set_hspi_user_mode                   0x08013aa5   Thumb Code    18  wm_driver.o(.text)
    tls_hspi_rx_cmd_callback_register        0x08013ab7   Thumb Code     6  wm_driver.o(.text)
    tls_hspi_rx_data_callback_register       0x08013abd   Thumb Code     6  wm_driver.o(.text)
    tls_hspi_tx_data_callback_register       0x08013ac3   Thumb Code     6  wm_driver.o(.text)
    tls_hspi_tx_data                         0x08013ac9   Thumb Code   124  wm_driver.o(.text)
    GPIOA_IRQHandler                         0x08013b45   Thumb Code    56  wm_driver.o(.text)
    GPIOB_IRQHandler                         0x08013b7d   Thumb Code    58  wm_driver.o(.text)
    tls_gpio_read                            0x08013bb7   Thumb Code    56  wm_driver.o(.text)
    tls_gpio_irq_enable                      0x08013bef   Thumb Code   186  wm_driver.o(.text)
    tls_gpio_irq_disable                     0x08013ca9   Thumb Code    40  wm_driver.o(.text)
    tls_get_gpio_irq_status                  0x08013cd1   Thumb Code   160  wm_driver.o(.text)
    tls_clr_gpio_irq_status                  0x08013d71   Thumb Code    32  wm_driver.o(.text)
    tls_gpio_isr_register                    0x08013d91   Thumb Code    14  wm_driver.o(.text)
    readSR                                   0x08013de3   Thumb Code    72  wm_driver.o(.text)
    readRID                                  0x08013e2b   Thumb Code    18  wm_driver.o(.text)
    flashSRRW                                0x08013e3d   Thumb Code   320  wm_driver.o(.text)
    writeESMTBpBit                           0x08013f7d   Thumb Code   112  wm_driver.o(.text)
    writeGDBpBit                             0x08013fed   Thumb Code    90  wm_driver.o(.text)
    flashlock                                0x08014047   Thumb Code    62  wm_driver.o(.text)
    tls_flash_lock                           0x08014085   Thumb Code     2  wm_driver.o(.text)
    readByCMD                                0x08014087   Thumb Code    94  wm_driver.o(.text)
    flashRead                                0x080140e5   Thumb Code   226  wm_driver.o(.text)
    tls_fls_write                            0x080141c7   Thumb Code   208  wm_driver.o(.text)
    flashunlock                              0x08014297   Thumb Code    62  wm_driver.o(.text)
    tls_flash_unlock                         0x080142d5   Thumb Code     2  wm_driver.o(.text)
    tls_fls_read                             0x080142d7   Thumb Code    74  wm_driver.o(.text)
    tls_ft_param_init                        0x08014321   Thumb Code   268  wm_driver.o(.text)
    tls_ft_param_get                         0x0801442d   Thumb Code    82  wm_driver.o(.text)
    tls_ft_param_set                         0x0801447f   Thumb Code   196  wm_driver.o(.text)
    tls_get_mac_addr                         0x08014543   Thumb Code     8  wm_driver.o(.text)
    tls_set_mac_addr                         0x0801454b   Thumb Code     8  wm_driver.o(.text)
    tls_get_tx_lo                            0x08014553   Thumb Code     8  wm_driver.o(.text)
    tls_set_tx_lo                            0x0801455b   Thumb Code     8  wm_driver.o(.text)
    tls_get_tx_iq_gain                       0x08014563   Thumb Code     8  wm_driver.o(.text)
    tls_set_tx_iq_gain                       0x0801456b   Thumb Code     8  wm_driver.o(.text)
    tls_get_rx_iq_gain                       0x08014573   Thumb Code     8  wm_driver.o(.text)
    tls_set_rx_iq_gain                       0x0801457b   Thumb Code     8  wm_driver.o(.text)
    tls_get_tx_iq_phase                      0x08014583   Thumb Code     8  wm_driver.o(.text)
    tls_set_tx_iq_phase                      0x0801458b   Thumb Code     8  wm_driver.o(.text)
    tls_get_rx_iq_phase                      0x08014593   Thumb Code     8  wm_driver.o(.text)
    tls_set_rx_iq_phase                      0x0801459b   Thumb Code     8  wm_driver.o(.text)
    tls_freq_err_op                          0x080145a3   Thumb Code    54  wm_driver.o(.text)
    tls_rf_vcg_ctrl_op                       0x080145d9   Thumb Code    38  wm_driver.o(.text)
    tls_get_tx_gain                          0x080145ff   Thumb Code    16  wm_driver.o(.text)
    tls_set_tx_gain                          0x0801460f   Thumb Code    16  wm_driver.o(.text)
    tls_get_chipid                           0x0801461f   Thumb Code    60  wm_driver.o(.text)
    tls_msleep                               0x0801465b   Thumb Code     6  wm_driver.o(.text)
    tls_sleep                                0x08014661   Thumb Code     8  wm_driver.o(.text)
    tls_usleep                               0x08014669   Thumb Code     6  wm_driver.o(.text)
    tls_dma_irq_clr                          0x0801466f   Thumb Code    10  wm_driver.o(.text)
    DMA_Channel0_IRQHandler                  0x0801470b   Thumb Code     4  wm_driver.o(.text)
    DMA_Channel1_IRQHandler                  0x0801470f   Thumb Code     4  wm_driver.o(.text)
    DMA_Channel2_IRQHandler                  0x08014713   Thumb Code     4  wm_driver.o(.text)
    DMA_Channel3_IRQHandler                  0x08014717   Thumb Code     4  wm_driver.o(.text)
    DMA_Channel4_7_IRQHandler                0x0801471b   Thumb Code     4  wm_driver.o(.text)
    tls_dma_start_by_wrap                    0x0801471f   Thumb Code    80  wm_driver.o(.text)
    tls_sys_clk_set                          0x0801476f   Thumb Code    48  wm_driver.o(.text)
    tls_adc_clear_irq                        0x0801479f   Thumb Code    38  wm_driver.o(.text)
    tls_read_adc_result                      0x080147c5   Thumb Code    12  wm_driver.o(.text)
    ADC_IRQHandler                           0x080147d1   Thumb Code    76  wm_driver.o(.text)
    tls_adc_init                             0x08014831   Thumb Code    54  wm_driver.o(.text)
    tls_adc_irq_register                     0x08014867   Thumb Code    26  wm_driver.o(.text)
    tls_adc_start_with_cpu                   0x08014881   Thumb Code    46  wm_driver.o(.text)
    tls_adc_enable_calibration_buffer_offset 0x080148af   Thumb Code    32  wm_driver.o(.text)
    tls_adc_temp_offset_with_cpu             0x080148cf   Thumb Code    48  wm_driver.o(.text)
    tls_adc_voltage_start_with_cpu           0x080148ff   Thumb Code    28  wm_driver.o(.text)
    tls_adc_start_with_dma                   0x0801491b   Thumb Code   402  wm_driver.o(.text)
    tls_adc_stop                             0x08014aad   Thumb Code    24  wm_driver.o(.text)
    tls_adc_config_cmp_reg                   0x08014ac5   Thumb Code    46  wm_driver.o(.text)
    tls_adc_cmp_start                        0x08014af3   Thumb Code    58  wm_driver.o(.text)
    tls_adc_reference_sel                    0x08014b2d   Thumb Code    34  wm_driver.o(.text)
    tls_adc_set_clk                          0x08014b4f   Thumb Code    20  wm_driver.o(.text)
    signedToUnsignedData                     0x08014b63   Thumb Code    22  wm_driver.o(.text)
    adc_get_offset                           0x08014b79   Thumb Code    46  wm_driver.o(.text)
    adc_get_interTemp                        0x08014ba7   Thumb Code   124  wm_driver.o(.text)
    adc_get_inputVolt                        0x08014c23   Thumb Code    72  wm_driver.o(.text)
    adc_get_interVolt                        0x08014c6b   Thumb Code    64  wm_driver.o(.text)
    adc_temp                                 0x08014cab   Thumb Code    12  wm_driver.o(.text)
    tls_io_cfg_get                           0x08014cb7   Thumb Code    94  wm_driver.o(.text)
    tls_i2s_set_freq                         0x08014d15   Thumb Code    80  wm_driver.o(.text)
    tls_i2s_config                           0x08014d65   Thumb Code    88  wm_driver.o(.text)
    tls_i2s_port_init                        0x08014dbd   Thumb Code    68  wm_driver.o(.text)
    wm_i2s_set_freq_exclk                    0x08014e01   Thumb Code    92  wm_driver.o(.text)
    I2S_IRQHandler                           0x08014e5d   Thumb Code   390  wm_driver.o(.text)
    tls_i2s_rx_register                      0x08014fe3   Thumb Code     6  wm_driver.o(.text)
    tls_i2s_tx_register                      0x08014fe9   Thumb Code     6  wm_driver.o(.text)
    tls_i2s_tx_block                         0x08014fef   Thumb Code   128  wm_driver.o(.text)
    tls_i2s_tx_nonblock                      0x0801506f   Thumb Code    68  wm_driver.o(.text)
    tls_i2s_rx_nonblock                      0x080150b3   Thumb Code    74  wm_driver.o(.text)
    tls_i2s_tx_dma_config                    0x080150fd   Thumb Code    84  wm_driver.o(.text)
    tls_i2s_tx_dma                           0x08015151   Thumb Code   130  wm_driver.o(.text)
    tls_i2s_rx_dma_config                    0x080151d3   Thumb Code   104  wm_driver.o(.text)
    tls_i2s_rx_dma                           0x0801523b   Thumb Code    98  wm_driver.o(.text)
    tls_i2s_tx_dma_callback                  0x0801529d   Thumb Code    58  wm_driver.o(.text)
    tls_i2s_rx_dma_callback                  0x080152d7   Thumb Code    38  wm_driver.o(.text)
    tls_i2s_rx_callback                      0x080152fd   Thumb Code    20  wm_driver.o(.text)
    tls_i2s_test                             0x08015311   Thumb Code   152  wm_driver.o(.text)
    tls_lcd_fresh_ratio                      0x080153a9   Thumb Code    40  wm_driver.o(.text)
    tls_lcd_seg_set                          0x080153d1   Thumb Code   132  wm_driver.o(.text)
    tls_lcd_io_config                        0x08015455   Thumb Code     8  wm_driver.o(.text)
    tls_lcd_vlcd_sel                         0x0801545d   Thumb Code    20  wm_driver.o(.text)
    tls_lcd_duty_set                         0x08015471   Thumb Code    20  wm_driver.o(.text)
    tls_lcd_bias_set                         0x08015485   Thumb Code    20  wm_driver.o(.text)
    tls_lcd_vdd_sel                          0x08015499   Thumb Code    50  wm_driver.o(.text)
    tls_lcd_init                             0x080154cb   Thumb Code    70  wm_driver.o(.text)
    PMU_TIMER1_IRQHandler                    0x08015511   Thumb Code    32  wm_driver.o(.text)
    PMU_TIMER0_IRQHandler                    0x08015531   Thumb Code    44  wm_driver.o(.text)
    PMU_GPIO_WAKE_IRQHandler                 0x0801555d   Thumb Code    32  wm_driver.o(.text)
    PMU_SDIO_WAKE_IRQHandler                 0x0801557d   Thumb Code    32  wm_driver.o(.text)
    tls_pmu_timer1_isr_register              0x0801559d   Thumb Code    14  wm_driver.o(.text)
    tls_pmu_timer0_isr_register              0x080155ab   Thumb Code    14  wm_driver.o(.text)
    tls_pmu_gpio_isr_register                0x080155b9   Thumb Code    14  wm_driver.o(.text)
    tls_pmu_sdio_isr_register                0x080155c7   Thumb Code    14  wm_driver.o(.text)
    tls_pmu_clk_select                       0x080155d5   Thumb Code    26  wm_driver.o(.text)
    tls_pmu_timer0_start                     0x080155ef   Thumb Code    12  wm_driver.o(.text)
    tls_pmu_timer0_stop                      0x080155fb   Thumb Code    14  wm_driver.o(.text)
    tls_pmu_timer1_start                     0x08015609   Thumb Code    14  wm_driver.o(.text)
    tls_pmu_timer1_stop                      0x08015617   Thumb Code    14  wm_driver.o(.text)
    tls_pmu_standby_start                    0x08015625   Thumb Code    22  wm_driver.o(.text)
    tls_close_peripheral_clock               0x0801563b   Thumb Code    12  wm_driver.o(.text)
    tls_open_peripheral_clock                0x08015647   Thumb Code    12  wm_driver.o(.text)
    wm_sc_io_clk_config                      0x08015653   Thumb Code    86  wm_driver.o(.text)
    wm_sc_set_bgt                            0x080156a9   Thumb Code    24  wm_driver.o(.text)
    wm_sc_tx_retry_times                     0x080156c1   Thumb Code    24  wm_driver.o(.text)
    wm_sc_rx_retry_times                     0x080156d9   Thumb Code    24  wm_driver.o(.text)
    wm_sc_set_etu                            0x080156f1   Thumb Code    16  wm_driver.o(.text)
    wm_sc_set_frequency                      0x08015701   Thumb Code    50  wm_driver.o(.text)
    wm_sc_powerInit                          0x08015733   Thumb Code    20  wm_driver.o(.text)
    wm_sc_poweron                            0x08015747   Thumb Code    24  wm_driver.o(.text)
    wm_sc_poweroff                           0x0801575f   Thumb Code    94  wm_driver.o(.text)
    wm_sc_rst_low                            0x080157bd   Thumb Code    24  wm_driver.o(.text)
    wm_sc_rst_high                           0x080157d5   Thumb Code    24  wm_driver.o(.text)
    wm_sc_hotreset                           0x080157ed   Thumb Code    28  wm_driver.o(.text)
    wm_sc_colreset                           0x08015809   Thumb Code    74  wm_driver.o(.text)
    wm_sc_deactive                           0x08015853   Thumb Code    52  wm_driver.o(.text)
    tls_fls_sem_lock                         0x08015887   Thumb Code    18  wm_driver.o(.text)
    tls_fls_sem_unlock                       0x08015899   Thumb Code    16  wm_driver.o(.text)
    tls_fls_erase                            0x080158a9   Thumb Code    64  wm_driver.o(.text)
    tls_fls_fast_write_init                  0x0801592d   Thumb Code    42  wm_driver.o(.text)
    tls_fls_fast_write_destroy               0x08015957   Thumb Code    48  wm_driver.o(.text)
    tls_fls_fast_write                       0x08015987   Thumb Code   166  wm_driver.o(.text)
    tls_fls_chip_erase                       0x08015a2d   Thumb Code   132  wm_driver.o(.text)
    tls_fls_get_param                        0x08015ab1   Thumb Code    86  wm_driver.o(.text)
    tls_fls_init                             0x08015b07   Thumb Code    52  wm_driver.o(.text)
    tls_fls_exit                             0x08015b3b   Thumb Code     4  wm_driver.o(.text)
    tls_spifls_read                          0x08015b3f   Thumb Code    88  wm_driver.o(.text)
    tls_spifls_fast_read                     0x08015b97   Thumb Code    62  wm_driver.o(.text)
    tls_spifls_page_write                    0x08015bd5   Thumb Code   112  wm_driver.o(.text)
    tls_spifls_write                         0x08015c45   Thumb Code   330  wm_driver.o(.text)
    tls_spifls_erase                         0x08015d8f   Thumb Code    70  wm_driver.o(.text)
    tls_spifls_chip_erase                    0x08015dd5   Thumb Code    22  wm_driver.o(.text)
    tls_spifls_get_param                     0x08015deb   Thumb Code    92  wm_driver.o(.text)
    tls_spifls_drv_register                  0x08015e47   Thumb Code    60  wm_driver.o(.text)
    tls_spifls_drv_unregister                0x08015e83   Thumb Code     4  wm_driver.o(.text)
    tls_spifls_probe                         0x08015e87   Thumb Code    98  wm_driver.o(.text)
    tls_spifls_drv_install                   0x08015ee9   Thumb Code    22  wm_driver.o(.text)
    tls_spifls_init                          0x08015eff   Thumb Code    64  wm_driver.o(.text)
    tls_spifls_exit                          0x08015f3f   Thumb Code     4  wm_driver.o(.text)
    WDG_IRQHandler                           0x08016055   Thumb Code     6  wm_driver.o(.text)
    tls_watchdog_clr                         0x0801605b   Thumb Code     8  wm_driver.o(.text)
    tls_watchdog_init                        0x08016063   Thumb Code    36  wm_driver.o(.text)
    tls_sys_reset                            0x08016087   Thumb Code    30  wm_driver.o(.text)
    wm_hspi_gpio_config                      0x080160a5   Thumb Code    92  wm_driver.o(.text)
    wm_spi_ck_config                         0x08016101   Thumb Code    42  wm_driver.o(.text)
    wm_spi_cs_config                         0x0801612b   Thumb Code    52  wm_driver.o(.text)
    wm_spi_di_config                         0x0801615f   Thumb Code    52  wm_driver.o(.text)
    wm_spi_do_config                         0x08016193   Thumb Code    52  wm_driver.o(.text)
    wm_sdio_config                           0x080161c7   Thumb Code    52  wm_driver.o(.text)
    wm_sdio_cmd_config                       0x080161fb   Thumb Code    32  wm_driver.o(.text)
    wm_uart0_tx_config                       0x0801621b   Thumb Code    42  wm_driver.o(.text)
    wm_uart0_rx_config                       0x08016245   Thumb Code    86  wm_driver.o(.text)
    wm_uart0_rts_config                      0x0801629b   Thumb Code    32  wm_driver.o(.text)
    wm_uart0_cts_config                      0x080162bb   Thumb Code    32  wm_driver.o(.text)
    wm_uart1_tx_config                       0x080162db   Thumb Code    22  wm_driver.o(.text)
    wm_uart1_rx_config                       0x080162f1   Thumb Code    48  wm_driver.o(.text)
    wm_uart1_rts_config                      0x08016321   Thumb Code    12  wm_driver.o(.text)
    wm_uart1_cts_config                      0x0801632d   Thumb Code    12  wm_driver.o(.text)
    wm_uart2_tx_scio_config                  0x08016339   Thumb Code    42  wm_driver.o(.text)
    wm_uart2_rx_config                       0x08016363   Thumb Code   102  wm_driver.o(.text)
    wm_uart2_rts_scclk_config                0x080163c9   Thumb Code    52  wm_driver.o(.text)
    wm_uart2_cts_config                      0x080163fd   Thumb Code    42  wm_driver.o(.text)
    wm_i2s_m_ck_config                       0x08016427   Thumb Code    66  wm_driver.o(.text)
    wm_i2s_m_ws_config                       0x08016469   Thumb Code    32  wm_driver.o(.text)
    wm_i2s_m_do_config                       0x08016489   Thumb Code    32  wm_driver.o(.text)
    wm_i2s_s_ck_config                       0x080164a9   Thumb Code    42  wm_driver.o(.text)
    wm_i2s_s_ws_config                       0x080164d3   Thumb Code    42  wm_driver.o(.text)
    wm_i2s_s_di_config                       0x080164fd   Thumb Code    42  wm_driver.o(.text)
    wm_i2s_mclk_config                       0x08016527   Thumb Code    32  wm_driver.o(.text)
    wm_i2s_extclk_config                     0x08016547   Thumb Code    12  wm_driver.o(.text)
    wm_i2c_scl_config                        0x08016553   Thumb Code    52  wm_driver.o(.text)
    wm_i2c_sda_config                        0x08016587   Thumb Code    52  wm_driver.o(.text)
    wm_pwm1_config                           0x080165bb   Thumb Code    60  wm_driver.o(.text)
    wm_pwm2_config                           0x080165f7   Thumb Code    62  wm_driver.o(.text)
    wm_pwm3_config                           0x08016635   Thumb Code    52  wm_driver.o(.text)
    wm_pwm4_config                           0x08016669   Thumb Code    62  wm_driver.o(.text)
    wm_pwm5_config                           0x080166a7   Thumb Code    62  wm_driver.o(.text)
    wm_pwmbrk_config                         0x080166e5   Thumb Code    42  wm_driver.o(.text)
    wm_swd_config                            0x0801670f   Thumb Code    36  wm_driver.o(.text)
    wm_adc_config                            0x08016733   Thumb Code    68  wm_driver.o(.text)
    wm_gpio_af_disable                       0x08016777   Thumb Code    14  wm_driver.o(.text)
    tls_crypto_crc_final                     0x08016a89   Thumb Code     8  wm_common.o(.text)
    Reflect                                  0x08016a91   Thumb Code    36  wm_common.o(.text)
    tls_crypto_crc_update                    0x08016ab5   Thumb Code   116  wm_common.o(.text)
    tls_crypto_crc_init                      0x08016b29   Thumb Code    10  wm_common.o(.text)
    tls_fwup_img_header_check                0x08016b33   Thumb Code   102  wm_common.o(.text)
    mem_free_debug                           0x08016b99   Thumb Code    90  wm_common.o(.text)
    mem_alloc_debug                          0x08016bf3   Thumb Code   112  wm_common.o(.text)
    fwup_request_complete                    0x08016f19   Thumb Code    16  wm_common.o(.text)
    tls_param_get                            0x08016f29   Thumb Code   532  wm_common.o(.text)
    tls_fwup_init                            0x0801713d   Thumb Code   122  wm_common.o(.text)
    tls_fwup_enter                           0x080171b7   Thumb Code   156  wm_common.o(.text)
    tls_fwup_exit                            0x08017253   Thumb Code   124  wm_common.o(.text)
    tls_fwup_get_current_session_id          0x080172cf   Thumb Code    12  wm_common.o(.text)
    tls_fwup_set_update_numer                0x080172db   Thumb Code    24  wm_common.o(.text)
    tls_fwup_get_current_update_numer        0x080172f3   Thumb Code     8  wm_common.o(.text)
    tls_fwup_get_status                      0x080172fb   Thumb Code     8  wm_common.o(.text)
    tls_fwup_set_crc_error                   0x08017303   Thumb Code    62  wm_common.o(.text)
    tls_fwup_request_sync                    0x08017341   Thumb Code   132  wm_common.o(.text)
    tls_fwup_current_state                   0x080173c5   Thumb Code    24  wm_common.o(.text)
    tls_fwup_reset                           0x080173dd   Thumb Code    76  wm_common.o(.text)
    tls_fwup_clear_error                     0x08017429   Thumb Code    58  wm_common.o(.text)
    tls_mbox_new                             0x08017463   Thumb Code    18  wm_common.o(.text)
    tls_mbox_valid                           0x08017475   Thumb Code     8  wm_common.o(.text)
    tls_mbox_post                            0x0801747d   Thumb Code    38  wm_common.o(.text)
    tls_mbox_trypost                         0x080174a3   Thumb Code    16  wm_common.o(.text)
    tls_arch_mbox_fetch                      0x080174b3   Thumb Code    84  wm_common.o(.text)
    tls_untimeout_p                          0x08017507   Thumb Code    68  wm_common.o(.text)
    tls_timeout_p                            0x0801754b   Thumb Code    94  wm_common.o(.text)
    tls_timeouts_mbox_fetch_p                0x080175a9   Thumb Code    98  wm_common.o(.text)
    tls_wl_task_run                          0x08017667   Thumb Code    58  wm_common.o(.text)
    tls_wl_task_callback_static              0x080176a1   Thumb Code    82  wm_common.o(.text)
    tls_wl_task_callback                     0x080176f3   Thumb Code   102  wm_common.o(.text)
    tls_wl_task_add_timeout                  0x08017759   Thumb Code    66  wm_common.o(.text)
    tls_wl_task_untimeout                    0x0801779b   Thumb Code    60  wm_common.o(.text)
    tls_wl_task_init                         0x080177d7   Thumb Code    16  wm_common.o(.text)
    tls_wl_timer_init                        0x080177e7   Thumb Code    16  wm_common.o(.text)
    chk_crc8                                 0x080177f7   Thumb Code    32  wm_common.o(.text)
    get_crc8                                 0x08017817   Thumb Code    24  wm_common.o(.text)
    calculate_crc8                           0x0801782f   Thumb Code    20  wm_common.o(.text)
    get_crc32                                0x08017d7d   Thumb Code    60  wm_common.o(.text)
    checksum                                 0x08017db9   Thumb Code    52  wm_common.o(.text)
    atodec                                   0x08017ded   Thumb Code    16  wm_common.o(.text)
    strtodec                                 0x08017dfd   Thumb Code    66  wm_common.o(.text)
    atohex                                   0x08017e3f   Thumb Code    44  wm_common.o(.text)
    strtohex                                 0x08017e6b   Thumb Code    56  wm_common.o(.text)
    strtohexarray                            0x08017ea3   Thumb Code    68  wm_common.o(.text)
    strtoip                                  0x08017ee7   Thumb Code   102  wm_common.o(.text)
    iptostr                                  0x08017f4d   Thumb Code    30  wm_common.o(.text)
    mactostr                                 0x08017f6b   Thumb Code    32  wm_common.o(.text)
    hex_to_digit                             0x08017f8b   Thumb Code    42  wm_common.o(.text)
    digit_to_hex                             0x08017fb5   Thumb Code    26  wm_common.o(.text)
    hexstr_to_unit                           0x08017fcf   Thumb Code    60  wm_common.o(.text)
    string_to_uint                           0x0801800b   Thumb Code    54  wm_common.o(.text)
    string_to_ipaddr                         0x08018041   Thumb Code    72  wm_common.o(.text)
    strdup                                   0x08018089   Thumb Code    46  wm_common.o(.text)
    strndup                                  0x080180b7   Thumb Code    42  wm_common.o(.text)
    gettimeofday                             0x080180e1   Thumb Code    34  wm_common.o(.text)
    RSA_IRQHandler                           0x08018103   Thumb Code    16  wm_common.o(.text)
    CRYPTION_IRQHandler                      0x08018113   Thumb Code    16  wm_common.o(.text)
    tls_crypto_random_stop                   0x08018123   Thumb Code    16  wm_common.o(.text)
    tls_crypto_random_init                   0x08018133   Thumb Code    34  wm_common.o(.text)
    tls_crypto_random_bytes                  0x08018155   Thumb Code   140  wm_common.o(.text)
    tls_crypto_rc4_init                      0x080181e1   Thumb Code    28  wm_common.o(.text)
    tls_crypto_rc4                           0x080181fd   Thumb Code    82  wm_common.o(.text)
    tls_crypto_aes_init                      0x0801824f   Thumb Code    58  wm_common.o(.text)
    tls_crypto_aes_encrypt_decrypt           0x08018289   Thumb Code   138  wm_common.o(.text)
    tls_crypto_3des_init                     0x08018313   Thumb Code    58  wm_common.o(.text)
    tls_crypto_3des_encrypt_decrypt          0x0801834d   Thumb Code   132  wm_common.o(.text)
    tls_crypto_des_init                      0x080183d1   Thumb Code    58  wm_common.o(.text)
    tls_crypto_des_encrypt_decrypt           0x0801840b   Thumb Code   116  wm_common.o(.text)
    tls_crypto_sha1_init                     0x080184e5   Thumb Code    34  wm_common.o(.text)
    tls_crypto_sha1_update                   0x08018507   Thumb Code    90  wm_common.o(.text)
    tls_crypto_sha1_final                    0x08018561   Thumb Code   250  wm_common.o(.text)
    tls_crypto_md5_init                      0x080186b9   Thumb Code    30  wm_common.o(.text)
    tls_crypto_md5_update                    0x080186d7   Thumb Code    90  wm_common.o(.text)
    tls_crypto_md5_final                     0x08018731   Thumb Code   146  wm_common.o(.text)
    tls_crypto_exptmod                       0x08018887   Thumb Code   406  wm_common.o(.text)
    tls_crypto_init                          0x08018a1d   Thumb Code    30  wm_common.o(.text)
    psHmacMd5Final                           0x08018a3b   Thumb Code   228  wm_common.o(.text)
    psHmacMd5Update                          0x08018b1f   Thumb Code    54  wm_common.o(.text)
    psHmacMd5Init                            0x08018b55   Thumb Code   124  wm_common.o(.text)
    psHmacMd5                                0x08018bd1   Thumb Code   100  wm_common.o(.text)
    psHmacSha1Final                          0x08018c35   Thumb Code   104  wm_common.o(.text)
    psHmacSha1Update                         0x08018c9d   Thumb Code    54  wm_common.o(.text)
    psHmacSha1Init                           0x08018cd3   Thumb Code   124  wm_common.o(.text)
    psHmacSha1                               0x08018d4f   Thumb Code    98  wm_common.o(.text)
    psHmacSha2Final                          0x08018db1   Thumb Code   120  wm_common.o(.text)
    psHmacSha2Update                         0x08018e29   Thumb Code    68  wm_common.o(.text)
    psHmacSha2Init                           0x08018e6d   Thumb Code   138  wm_common.o(.text)
    psHmacSha2                               0x08018ef7   Thumb Code   192  wm_common.o(.text)
    getAsnLength                             0x08018fb7   Thumb Code    98  wm_common.o(.text)
    getAsnBig                                0x08019019   Thumb Code   106  wm_common.o(.text)
    getAsnSequence                           0x08019083   Thumb Code    60  wm_common.o(.text)
    getAsnSet                                0x080190bf   Thumb Code    54  wm_common.o(.text)
    getAsnInteger                            0x080190f5   Thumb Code   134  wm_common.o(.text)
    getAsnOID                                0x0801917b   Thumb Code   170  wm_common.o(.text)
    getAsnAlgorithmIdentifier                0x08019225   Thumb Code    52  wm_common.o(.text)
    getAsnConstructedOctetString             0x08019259   Thumb Code   246  wm_common.o(.text)
    getAsnRsaPubKey                          0x0801934f   Thumb Code   174  wm_common.o(.text)
    psX509GetSignature                       0x080193fd   Thumb Code   164  wm_common.o(.text)
    getSerialNum                             0x080194a1   Thumb Code   136  wm_common.o(.text)
    psX509GetDNAttributes                    0x08019529   Thumb Code   940  wm_common.o(.text)
    getExplicitExtensions                    0x08019b1f   Thumb Code  1522  wm_common.o(.text)
    psX509ParseCert                          0x0801a2e7   Thumb Code  1466  wm_common.o(.text)
    x509FreeExtensions                       0x0801a8a1   Thumb Code   166  wm_common.o(.text)
    psX509FreeDNStruct                       0x0801a947   Thumb Code    68  wm_common.o(.text)
    psX509FreeCert                           0x0801a98b   Thumb Code   282  wm_common.o(.text)
    psX509ValidateGeneralName                0x0801aaa5   Thumb Code   170  wm_common.o(.text)
    pkcs1Unpad                               0x0801ac05   Thumb Code    88  wm_common.o(.text)
    psRsaCrypt                               0x0801ac5d   Thumb Code   202  wm_common.o(.text)
    psRsaDecryptPub                          0x0801ad27   Thumb Code    94  wm_common.o(.text)
    psX509AuthenticateCert                   0x0801ad85   Thumb Code   474  wm_common.o(.text)
    pstm_mul_comba                           0x0801b0f5   Thumb Code    24  wm_common.o(.text)
    psGetEntropy                             0x0801b10d   Thumb Code    10  wm_common.o(.text)
    psInitPrng                               0x0801b117   Thumb Code     8  wm_common.o(.text)
    psGetPrng                                0x0801b11f   Thumb Code    16  wm_common.o(.text)
    pkcs1Pad                                 0x0801b12f   Thumb Code   112  wm_common.o(.text)
    psRsaFreeKey                             0x0801b19f   Thumb Code    74  wm_common.o(.text)
    psFreePubKey                             0x0801b1e9   Thumb Code    36  wm_common.o(.text)
    psNewPubKey                              0x0801b20d   Thumb Code    84  wm_common.o(.text)
    pkcs1ParsePrivBin                        0x0801b261   Thumb Code   322  wm_common.o(.text)
    pkcs5pbkdf2                              0x0801b3a3   Thumb Code   266  wm_common.o(.text)
    pkcs8ParsePrivBin                        0x0801b4ad   Thumb Code   872  wm_common.o(.text)
    pkcs5pbkdf1                              0x0801b815   Thumb Code   144  wm_common.o(.text)
    psRsaEncryptPriv                         0x0801b8a5   Thumb Code    98  wm_common.o(.text)
    psRsaEncryptPub                          0x0801b907   Thumb Code    96  wm_common.o(.text)
    psRsaDecryptPriv                         0x0801b967   Thumb Code    98  wm_common.o(.text)
    pubRsaDecryptSignedElement               0x0801b9c9   Thumb Code   324  wm_common.o(.text)
    privRsaEncryptSignedElement              0x0801bb0d   Thumb Code   120  wm_common.o(.text)
    psDes3InitKey                            0x0801bebb   Thumb Code   106  wm_common.o(.text)
    psDes3EncryptBlock                       0x0801bf25   Thumb Code   108  wm_common.o(.text)
    psDes3DecryptBlock                       0x0801bf91   Thumb Code   110  wm_common.o(.text)
    psDesInitKey                             0x0801bfff   Thumb Code    38  wm_common.o(.text)
    psDesEncryptBlock                        0x0801c025   Thumb Code    86  wm_common.o(.text)
    psDesDecryptBlock                        0x0801c07b   Thumb Code    90  wm_common.o(.text)
    mem_realloc_debug                        0x0801c0d5   Thumb Code   138  wm_common.o(.text)
    mem_calloc_debug                         0x0801c15f   Thumb Code    86  wm_common.o(.text)
    tls_mem_get_avail_heapsize               0x0801c1b5   Thumb Code   102  wm_common.o(.text)
    tls_param_load_factory_default           0x0801c589   Thumb Code   436  wm_common.o(.text)
    tls_param_init                           0x0801c73d   Thumb Code   384  wm_common.o(.text)
    tls_param_load_user                      0x0801c8bd   Thumb Code    80  wm_common.o(.text)
    tls_param_set                            0x0801c90d   Thumb Code   842  wm_common.o(.text)
    tls_param_to_flash                       0x0801cc57   Thumb Code    68  wm_common.o(.text)
    tls_param_to_default                     0x0801cc9b   Thumb Code    42  wm_common.o(.text)
    tls_param_save_user_default              0x0801ccc5   Thumb Code    58  wm_common.o(.text)
    tls_param_save_user                      0x0801ccff   Thumb Code   244  wm_common.o(.text)
    tls_param_get_updp_mode                  0x0801cdf3   Thumb Code     6  wm_common.o(.text)
    tls_param_set_updp_mode                  0x0801cdf9   Thumb Code     6  wm_common.o(.text)
    DHCPS_GetIpByMac                         0x0801d4c5   Thumb Code    52  dhcp_server.o(.text)
    DHCPS_SetDns                             0x0801d4f9   Thumb Code    16  dhcp_server.o(.text)
    DHCPS_RecvCb                             0x0801d509   Thumb Code   262  dhcp_server.o(.text)
    DHCPS_ClientDelete                       0x0801d60f   Thumb Code    88  dhcp_server.o(.text)
    DHCPS_Start                              0x0801d667   Thumb Code   264  dhcp_server.o(.text)
    DHCPS_Stop                               0x0801d76f   Thumb Code    36  dhcp_server.o(.text)
    DNSS_RecvCb                              0x0801d98f   Thumb Code   222  dns_server.o(.text)
    DNSS_Config                              0x0801da6d   Thumb Code    48  dns_server.o(.text)
    DNSS_Start                               0x0801da9d   Thumb Code   104  dns_server.o(.text)
    DNSS_Stop                                0x0801db05   Thumb Code    14  dns_server.o(.text)
    tls_wifi_oneshot_result_cb_register      0x0801dbbd   Thumb Code     6  wm_wifi_oneshot.o(.text)
    tls_wifi_get_oneshot_ssidpwd             0x0801dbc3   Thumb Code    48  wm_wifi_oneshot.o(.text)
    tls_wifi_get_oneshot_customdata          0x0801dbf3   Thumb Code    34  wm_wifi_oneshot.o(.text)
    tls_oneshot_data_clear                   0x0801dc15   Thumb Code    18  wm_wifi_oneshot.o(.text)
    soft_ap_create                           0x0801dc27   Thumb Code   168  wm_wifi_oneshot.o(.text)
    wm_oneshot_netif_status_event            0x0801dccf   Thumb Code    44  wm_wifi_oneshot.o(.text)
    tls_oneshot_scan_start                   0x0801dcfb   Thumb Code    18  wm_wifi_oneshot.o(.text)
    tls_oneshot_recv_timeout                 0x0801dd0d   Thumb Code    18  wm_wifi_oneshot.o(.text)
    tls_oneshot_handshake_timeout            0x0801dd1f   Thumb Code    18  wm_wifi_oneshot.o(.text)
    tls_oneshot_switch_channel_tim_start     0x0801dd31   Thumb Code    18  wm_wifi_oneshot.o(.text)
    free_socket                              0x0801dd43   Thumb Code    64  wm_wifi_oneshot.o(.text)
    socket_recive_cb                         0x0801dd83   Thumb Code   184  wm_wifi_oneshot.o(.text)
    create_tcp_server_socket                 0x0801de3b   Thumb Code   118  wm_wifi_oneshot.o(.text)
    tls_wifi_oneshot_connect                 0x0801deb1   Thumb Code   126  wm_wifi_oneshot.o(.text)
    tls_wifi_oneshot_connect_by_bssid        0x0801df2f   Thumb Code   166  wm_wifi_oneshot.o(.text)
    tls_wifi_send_oneshotinfo                0x0801dfd5   Thumb Code   122  wm_wifi_oneshot.o(.text)
    tls_wifi_get_oneshot_flag                0x0801e04f   Thumb Code     6  wm_wifi_oneshot.o(.text)
    wm_oneshot_send_mac                      0x0801e055   Thumb Code   100  wm_wifi_oneshot.o(.text)
    tls_oneshot_special_timer_stop           0x0801e0b9   Thumb Code    22  wm_wifi_oneshot.o(.text)
    tls_wifi_clear_oneshot_data              0x0801e0cf   Thumb Code    12  wm_wifi_oneshot.o(.text)
    tls_oneshot_stop_clear_data              0x0801e0db   Thumb Code   118  wm_wifi_oneshot.o(.text)
    oneshot_special_fn                       0x0801e151   Thumb Code     8  wm_wifi_oneshot.o(.text)
    tls_oneshot_is_ssid_bssid_match          0x0801e159   Thumb Code   214  wm_wifi_oneshot.o(.text)
    tls_oneshot_find_ch_by_bssid             0x0801e2b7   Thumb Code    70  wm_wifi_oneshot.o(.text)
    tls_oneshot_switch_channel_tim_stop      0x0801e2fd   Thumb Code    66  wm_wifi_oneshot.o(.text)
    tls_oneshot_switch_channel_tim_temp_stop 0x0801e33f   Thumb Code    32  wm_wifi_oneshot.o(.text)
    tls_wifi_lsd_oneshot_special             0x0801e35f   Thumb Code    82  wm_wifi_oneshot.o(.text)
    tls_wifi_dataframe_recv                  0x0801e3b1   Thumb Code   132  wm_wifi_oneshot.o(.text)
    oneshot_polling_check                    0x0801e435   Thumb Code   138  wm_wifi_oneshot.o(.text)
    tls_oneshot_special_task_handle          0x0801e4bf   Thumb Code    18  wm_wifi_oneshot.o(.text)
    tls_oneshot_special_task_create          0x0801e4d1   Thumb Code    60  wm_wifi_oneshot.o(.text)
    tls_oneshot_special_timer_start          0x0801e50d   Thumb Code    60  wm_wifi_oneshot.o(.text)
    tls_oneshot_callback_start               0x0801e549   Thumb Code    24  wm_wifi_oneshot.o(.text)
    tls_oneshot_scan_result_deal             0x0801e561   Thumb Code   278  wm_wifi_oneshot.o(.text)
    tls_oneshot_scan_result_cb               0x0801e677   Thumb Code    18  wm_wifi_oneshot.o(.text)
    tls_oneshot_task_handle                  0x0801e689   Thumb Code   840  wm_wifi_oneshot.o(.text)
    tls_oneshot_task_create                  0x0801e9d1   Thumb Code    62  wm_wifi_oneshot.o(.text)
    tls_oneshot_init_data                    0x0801ea0f   Thumb Code    82  wm_wifi_oneshot.o(.text)
    tls_wifi_start_oneshot                   0x0801ea61   Thumb Code   188  wm_wifi_oneshot.o(.text)
    tls_wifi_set_oneshot_flag                0x0801eb1d   Thumb Code   144  wm_wifi_oneshot.o(.text)
    tls_wifi_set_oneshot_customdata          0x0801ebad   Thumb Code    48  wm_wifi_oneshot.o(.text)
    tls_wifi_wait_disconnect                 0x0801ebdd   Thumb Code    46  wm_wifi_oneshot.o(.text)
    tls_wifi_oneshot_connect_by_ssid_bssid   0x0801ec0b   Thumb Code   280  wm_wifi_oneshot.o(.text)
    tls_wifi_decrypt_data                    0x0801ed23   Thumb Code   314  wm_wifi_oneshot.o(.text)
    tls_oneshot_find_chlist                  0x0801ee5d   Thumb Code    84  wm_wifi_oneshot.o(.text)
    tls_oneshot_send_web_connect_msg         0x0801eeb1   Thumb Code    18  wm_wifi_oneshot.o(.text)
    tls_wifi_set_oneshot_config_mode         0x0801eec3   Thumb Code    22  wm_wifi_oneshot.o(.text)
    tls_wifi_get_oneshot_config_mode         0x0801eed9   Thumb Code     6  wm_wifi_oneshot.o(.text)
    oneshot_airkiss_send_reply               0x0801ef09   Thumb Code   122  wm_oneshot_airkiss.o(.text)
    tls_oneshot_airkiss_change_channel       0x0801f011   Thumb Code    12  wm_oneshot_airkiss.o(.text)
    tls_airkiss_recv                         0x0801f061   Thumb Code    80  wm_oneshot_airkiss.o(.text)
    tls_airkiss_start                        0x0801f0b1   Thumb Code    34  wm_oneshot_airkiss.o(.text)
    tls_airkiss_stop                         0x0801f0d3   Thumb Code     2  wm_oneshot_airkiss.o(.text)
    lsd_crc8_init                            0x0801f125   Thumb Code     6  wm_oneshot_lsd.o(.text)
    lsd_crc8_update                          0x0801f12b   Thumb Code    14  wm_oneshot_lsd.o(.text)
    lsd_crc8_get                             0x0801f139   Thumb Code     6  wm_oneshot_lsd.o(.text)
    lsd_crc8_calc                            0x0801f13f   Thumb Code    34  wm_oneshot_lsd.o(.text)
    tls_lsd_recv                             0x0801f1f5   Thumb Code  1510  wm_oneshot_lsd.o(.text)
    tls_lsd_init                             0x0801f7db   Thumb Code    96  wm_oneshot_lsd.o(.text)
    tls_get_fwup_mode                        0x0801f949   Thumb Code     6  wm_cmd.o(.text)
    tls_cmd_get_ver                          0x0801f94f   Thumb Code    32  wm_cmd.o(.text)
    tls_cmd_get_hw_ver                       0x0801f96f   Thumb Code     4  wm_cmd.o(.text)
    tls_cmd_set_hw_ver                       0x0801f973   Thumb Code     4  wm_cmd.o(.text)
    tls_set_fwup_mode                        0x0801f977   Thumb Code     6  wm_cmd.o(.text)
    tls_cmd_get_auto_mode                    0x0801f97d   Thumb Code    18  wm_cmd.o(.text)
    tls_cmd_get_socket_cfg                   0x0801f98f   Thumb Code     4  wm_cmd.o(.text)
    tls_cmd_set_net_up                       0x0801f993   Thumb Code     6  wm_cmd.o(.text)
    tls_cmd_get_net_up                       0x0801f999   Thumb Code     6  wm_cmd.o(.text)
    tls_cmd_init_socket_cfg                  0x0801f99f   Thumb Code   110  wm_cmd.o(.text)
    tls_cmd_reset_sys                        0x0801fa11   Thumb Code    56  wm_cmd.o(.text)
    tls_cmd_pmtf                             0x0801fa49   Thumb Code     8  wm_cmd.o(.text)
    tls_cmd_reset_flash                      0x0801fa51   Thumb Code     4  wm_cmd.o(.text)
    tls_cmd_ps                               0x0801fa55   Thumb Code   120  wm_cmd.o(.text)
    tls_hostif_get_tx_msg                    0x0801facd   Thumb Code     6  wm_cmd.o(.text)
    tls_hostif_get_tx_event_msg              0x0801fad3   Thumb Code     2  wm_cmd.o(.text)
    tls_get_hostif                           0x0801fad5   Thumb Code     6  wm_cmd.o(.text)
    tls_hostif_process_cmdrsp                0x0801fadb   Thumb Code   166  wm_cmd.o(.text)
    tls_hostif_fill_event_hdr                0x0801fb81   Thumb Code    12  wm_cmd.o(.text)
    tls_hostif_fill_hdr                      0x0801fb8d   Thumb Code    36  wm_cmd.o(.text)
    tls_hostif_send_event                    0x0801fbb1   Thumb Code   122  wm_cmd.o(.text)
    tls_hostif_send_event_scan_cmplt         0x0801fc2b   Thumb Code   422  wm_cmd.o(.text)
    hostif_wscan_cmplt                       0x0801fdd1   Thumb Code   110  wm_cmd.o(.text)
    tls_cmd_scan                             0x0801fe3f   Thumb Code    56  wm_cmd.o(.text)
    tls_cmd_get_key                          0x0801fe77   Thumb Code   120  wm_cmd.o(.text)
    tls_cmd_get_ssid                         0x0801feef   Thumb Code    50  wm_cmd.o(.text)
    tls_cmd_get_bssid                        0x0801ff21   Thumb Code    38  wm_cmd.o(.text)
    tls_cmd_join_net                         0x0801ff47   Thumb Code    98  wm_cmd.o(.text)
    tls_cmd_get_dnsname                      0x0801ffa9   Thumb Code    16  wm_cmd.o(.text)
    tls_cmd_get_softap_ip_info               0x0801ffb9   Thumb Code    44  wm_cmd.o(.text)
    tls_cmd_get_softap_key                   0x0801ffe5   Thumb Code    80  wm_cmd.o(.text)
    tls_cmd_get_softap_channel               0x08020035   Thumb Code    16  wm_cmd.o(.text)
    tls_cmd_get_softap_encrypt               0x08020045   Thumb Code    16  wm_cmd.o(.text)
    tls_cmd_get_softap_ssid                  0x08020055   Thumb Code    48  wm_cmd.o(.text)
    tls_cmd_create_net                       0x08020085   Thumb Code   138  wm_cmd.o(.text)
    tls_cmd_create_ibss_net                  0x0802010f   Thumb Code     4  wm_cmd.o(.text)
    tls_cmd_get_wireless_mode                0x08020113   Thumb Code    66  wm_cmd.o(.text)
    tls_cmd_join                             0x08020155   Thumb Code   170  wm_cmd.o(.text)
    tls_cmd_disconnect_network               0x080201ff   Thumb Code    72  wm_cmd.o(.text)
    tls_cmd_get_link_status                  0x08020247   Thumb Code    40  wm_cmd.o(.text)
    tls_cmd_wps_start                        0x0802026f   Thumb Code     6  wm_cmd.o(.text)
    tls_cmd_set_wireless_mode                0x08020275   Thumb Code    54  wm_cmd.o(.text)
    tls_cmd_set_ssid                         0x080202ab   Thumb Code    44  wm_cmd.o(.text)
    tls_cmd_set_tem_offset                   0x080202d7   Thumb Code    26  wm_cmd.o(.text)
    tls_cmd_get_tem_offset                   0x080202f1   Thumb Code    38  wm_cmd.o(.text)
    tls_cmd_set_key                          0x08020317   Thumb Code    98  wm_cmd.o(.text)
    tls_cmd_set_encrypt                      0x08020379   Thumb Code    60  wm_cmd.o(.text)
    tls_cmd_get_encrypt                      0x080203b5   Thumb Code    16  wm_cmd.o(.text)
    tls_cmd_set_bssid                        0x080203c5   Thumb Code    72  wm_cmd.o(.text)
    tls_cmd_get_original_ssid                0x0802040d   Thumb Code    30  wm_cmd.o(.text)
    tls_cmd_get_original_key                 0x0802042b   Thumb Code    16  wm_cmd.o(.text)
    tls_cmd_set_hide_ssid                    0x0802043b   Thumb Code    16  wm_cmd.o(.text)
    tls_cmd_get_hide_ssid                    0x0802044b   Thumb Code    16  wm_cmd.o(.text)
    tls_cmd_set_channel                      0x0802045b   Thumb Code    40  wm_cmd.o(.text)
    tls_cmd_get_channel                      0x08020483   Thumb Code    38  wm_cmd.o(.text)
    tls_cmd_set_channellist                  0x080204a9   Thumb Code    16  wm_cmd.o(.text)
    tls_cmd_get_channellist                  0x080204b9   Thumb Code    16  wm_cmd.o(.text)
    tls_cmd_set_region                       0x080204c9   Thumb Code    16  wm_cmd.o(.text)
    tls_cmd_get_region                       0x080204d9   Thumb Code    16  wm_cmd.o(.text)
    tls_cmd_set_hw_mode                      0x080204e9   Thumb Code    50  wm_cmd.o(.text)
    tls_cmd_get_hw_mode                      0x0802051b   Thumb Code    30  wm_cmd.o(.text)
    tls_cmd_set_adhoc_create_mode            0x08020539   Thumb Code    16  wm_cmd.o(.text)
    tls_cmd_get_adhoc_create_mode            0x08020549   Thumb Code    16  wm_cmd.o(.text)
    tls_cmd_set_wl_ps_mode                   0x08020559   Thumb Code    16  wm_cmd.o(.text)
    tls_cmd_get_wl_ps_mode                   0x08020569   Thumb Code    16  wm_cmd.o(.text)
    tls_cmd_set_roaming_mode                 0x08020579   Thumb Code    16  wm_cmd.o(.text)
    tls_cmd_get_roaming_mode                 0x08020589   Thumb Code    24  wm_cmd.o(.text)
    tls_cmd_set_wps_params                   0x080205a1   Thumb Code     6  wm_cmd.o(.text)
    tls_cmd_get_wps_params                   0x080205a7   Thumb Code     6  wm_cmd.o(.text)
    tls_cmd_get_ip_info                      0x080205ad   Thumb Code    48  wm_cmd.o(.text)
    tls_cmd_set_ip_info                      0x080205dd   Thumb Code   106  wm_cmd.o(.text)
    tls_cmd_set_work_mode                    0x08020647   Thumb Code    50  wm_cmd.o(.text)
    tls_cmd_get_work_mode                    0x08020679   Thumb Code    32  wm_cmd.o(.text)
    tls_cmd_get_hostif_mode                  0x08020699   Thumb Code    16  wm_cmd.o(.text)
    tls_cmd_set_hostif_mode                  0x080206a9   Thumb Code    16  wm_cmd.o(.text)
    tls_cmd_set_default_socket_params        0x080206b9   Thumb Code   104  wm_cmd.o(.text)
    tls_cmd_get_default_socket_params        0x08020721   Thumb Code    48  wm_cmd.o(.text)
    tls_cmd_get_uart_params                  0x08020751   Thumb Code    70  wm_cmd.o(.text)
    tls_cmd_get_uart1_port                   0x08020797   Thumb Code     6  wm_cmd.o(.text)
    tls_cmd_set_uart_params                  0x0802079d   Thumb Code   152  wm_cmd.o(.text)
    tls_cmd_get_atlt                         0x08020835   Thumb Code    12  wm_cmd.o(.text)
    tls_cmd_set_atlt                         0x08020841   Thumb Code    42  wm_cmd.o(.text)
    tls_cmd_get_atpt                         0x0802086b   Thumb Code    26  wm_cmd.o(.text)
    tls_cmd_set_dnsname                      0x08020885   Thumb Code    24  wm_cmd.o(.text)
    tls_cmd_set_atpt                         0x0802089d   Thumb Code    40  wm_cmd.o(.text)
    tls_cmd_get_espc                         0x080208c5   Thumb Code    16  wm_cmd.o(.text)
    tls_cmd_set_espc                         0x080208d5   Thumb Code    28  wm_cmd.o(.text)
    tls_cmd_get_espt                         0x080208f1   Thumb Code    16  wm_cmd.o(.text)
    tls_cmd_set_espt                         0x08020901   Thumb Code    16  wm_cmd.o(.text)
    tls_cmd_get_iom                          0x08020911   Thumb Code    16  wm_cmd.o(.text)
    tls_cmd_set_iom                          0x08020921   Thumb Code    16  wm_cmd.o(.text)
    tls_cmd_get_cmdm                         0x08020931   Thumb Code    16  wm_cmd.o(.text)
    tls_cmd_set_cmdm                         0x08020941   Thumb Code    16  wm_cmd.o(.text)
    tls_cmd_set_oneshot                      0x08020951   Thumb Code    10  wm_cmd.o(.text)
    tls_cmd_get_oneshot                      0x0802095b   Thumb Code    14  wm_cmd.o(.text)
    tls_cmd_set_sha1                         0x08020969   Thumb Code    16  wm_cmd.o(.text)
    tls_cmd_get_sha1                         0x08020979   Thumb Code    16  wm_cmd.o(.text)
    tls_cmd_get_pass                         0x08020989   Thumb Code    16  wm_cmd.o(.text)
    tls_cmd_set_pass                         0x08020999   Thumb Code    16  wm_cmd.o(.text)
    tls_cmd_get_warc                         0x080209a9   Thumb Code    16  wm_cmd.o(.text)
    tls_cmd_set_warc                         0x080209b9   Thumb Code    16  wm_cmd.o(.text)
    tls_cmd_set_webs                         0x080209c9   Thumb Code    16  wm_cmd.o(.text)
    tls_cmd_get_webs                         0x080209d9   Thumb Code    16  wm_cmd.o(.text)
    tls_cmd_set_dbg                          0x080209e9   Thumb Code     4  wm_cmd.o(.text)
    tls_cmd_wr_flash                         0x080209ed   Thumb Code    42  wm_cmd.o(.text)
    tls_cmd_register_get_uart1_port          0x08020a17   Thumb Code     6  wm_cmd.o(.text)
    tls_cmd_register_set_uart1_mode          0x08020a1d   Thumb Code     6  wm_cmd.o(.text)
    tls_cmd_get_set_uart1_mode               0x08020a23   Thumb Code     6  wm_cmd.o(.text)
    tls_cmd_register_set_uart1_sock_param    0x08020a29   Thumb Code     6  wm_cmd.o(.text)
    tls_cmd_get_set_uart1_sock_param         0x08020a2f   Thumb Code     6  wm_cmd.o(.text)
    tls_cmd_register_set_uart0_mode          0x08020a35   Thumb Code     6  wm_cmd.o(.text)
    tls_cmd_get_set_uart0_mode               0x08020a3b   Thumb Code     6  wm_cmd.o(.text)
    tls_cmd_set_softap_ssid                  0x08020a41   Thumb Code    64  wm_cmd.o(.text)
    tls_cmd_set_softap_key                   0x08020a81   Thumb Code    82  wm_cmd.o(.text)
    tls_cmd_set_softap_encrypt               0x08020ad3   Thumb Code    58  wm_cmd.o(.text)
    tls_cmd_set_softap_channel               0x08020b0d   Thumb Code    30  wm_cmd.o(.text)
    tls_cmd_set_softap_hw_mode               0x08020b2b   Thumb Code    48  wm_cmd.o(.text)
    tls_cmd_get_softap_hw_mode               0x08020b5b   Thumb Code    30  wm_cmd.o(.text)
    tls_cmd_set_softap_ip_info               0x08020b79   Thumb Code    42  wm_cmd.o(.text)
    tls_cmd_get_softap_link_status           0x08020ba3   Thumb Code    52  wm_cmd.o(.text)
    tls_cmd_get_sta_detail                   0x08020bd7   Thumb Code   150  wm_cmd.o(.text)
    tls_hostif_get_recvmit                   0x08020c6d   Thumb Code    12  wm_cmd.o(.text)
    tls_hostif_fill_cmdrsp_hdr               0x08020c79   Thumb Code    12  wm_cmd.o(.text)
    free_tx_msg_buffer                       0x08020c85   Thumb Code    30  wm_cmd.o(.text)
    tls_hostif_atcmd_loopback                0x08020ca3   Thumb Code    78  wm_cmd.o(.text)
    atcmd_ok_resp                            0x08020cf1   Thumb Code     6  wm_cmd.o(.text)
    at_format_func                           0x08020cf7   Thumb Code  4608  wm_cmd.o(.text)
    atcmd_filter_quotation                   0x08021ef7   Thumb Code   100  wm_cmd.o(.text)
    at_parse_func                            0x08021f5b   Thumb Code  4096  wm_cmd.o(.text)
    atcmd_err_resp                           0x08022f5b   Thumb Code     8  wm_cmd.o(.text)
    tls_hostif_atcmd_exec                    0x08022f63   Thumb Code   314  wm_cmd.o(.text)
    get_first_comma                          0x0802309d   Thumb Code    68  wm_cmd.o(.text)
    tls_atcmd_parse                          0x080230e1   Thumb Code   290  wm_cmd.o(.text)
    ricmd_default_proc                       0x08023203   Thumb Code    36  wm_cmd.o(.text)
    ri_format_func                           0x08023227   Thumb Code   868  wm_cmd.o(.text)
    ri_parse_func                            0x0802358b   Thumb Code   768  wm_cmd.o(.text)
    tls_hostif_ricmd_exec                    0x0802388b   Thumb Code   250  wm_cmd.o(.text)
    tls_hostif_cmd_handler                   0x08023985   Thumb Code   430  wm_cmd.o(.text)
    tls_hostif_hdr_check                     0x08023b33   Thumb Code    12  wm_cmd.o(.text)
    tls_hostif_send_event_port_check         0x08023b3f   Thumb Code    22  wm_cmd.o(.text)
    tls_hostif_send_event_init_cmplt         0x08023b55   Thumb Code    40  wm_cmd.o(.text)
    tls_hostif_send_event_wjoin_success      0x08023b7d   Thumb Code   126  wm_cmd.o(.text)
    tls_hostif_send_event_wjoin_failed       0x08023bfb   Thumb Code    46  wm_cmd.o(.text)
    tls_hostif_send_event_linkdown           0x08023c29   Thumb Code    40  wm_cmd.o(.text)
    tls_hostif_send_event_sta_join           0x08023c51   Thumb Code    40  wm_cmd.o(.text)
    tls_hostif_send_event_sta_leave          0x08023c79   Thumb Code    40  wm_cmd.o(.text)
    tls_hostif_send_event_crc_err            0x08023ca1   Thumb Code    40  wm_cmd.o(.text)
    tls_hostif_send_event_tx_fail            0x08023cc9   Thumb Code    40  wm_cmd.o(.text)
    tls_hostif_send_event_tcp_conn           0x08023cf1   Thumb Code    52  wm_cmd.o(.text)
    tls_hostif_send_event_tcp_join           0x08023d25   Thumb Code    44  wm_cmd.o(.text)
    tls_hostif_send_event_tcp_dis            0x08023d51   Thumb Code    44  wm_cmd.o(.text)
    tls_hostif_tx_timeout                    0x08023d7d   Thumb Code    58  wm_cmd.o(.text)
    tls_hostif_task_init                     0x08023db7   Thumb Code     6  wm_cmd.o(.text)
    tls_hostif_init                          0x08023dbd   Thumb Code   132  wm_cmd.o(.text)
    tls_hostif_recv_data                     0x08023ec3   Thumb Code    58  wm_cmd.o(.text)
    tls_hostif_send_data                     0x08023efd   Thumb Code    50  wm_cmd.o(.text)
    tls_cmd_get_socket_status                0x0802400b   Thumb Code     4  wm_cmd.o(.text)
    tls_cmd_get_socket_state                 0x0802400f   Thumb Code    76  wm_cmd.o(.text)
    tls_hostif_create_default_socket         0x080240c3   Thumb Code   110  wm_cmd.o(.text)
    tls_cmd_close_socket                     0x08024131   Thumb Code    22  wm_cmd.o(.text)
    tls_hostif_close_default_socket          0x08024147   Thumb Code    28  wm_cmd.o(.text)
    tls_cmd_create_socket                    0x080241dd   Thumb Code   116  wm_cmd.o(.text)
    tls_cmd_get_default_socket               0x08024251   Thumb Code     6  wm_cmd.o(.text)
    tls_cmd_set_default_socket               0x08024257   Thumb Code    20  wm_cmd.o(.text)
    tls_hostif_set_net_status_callback       0x08024385   Thumb Code     6  wm_cmd.o(.text)
    tls_hostif_http_client_recv_callback     0x0802438b   Thumb Code   114  wm_cmd.o(.text)
    tls_hostif_http_client_err_callback      0x080243fd   Thumb Code    68  wm_cmd.o(.text)
    z_proc                                   0x08024441   Thumb Code    10  wm_cmd.o(.text)
    e_proc                                   0x0802444b   Thumb Code    22  wm_cmd.o(.text)
    ents_proc                                0x08024461   Thumb Code    74  wm_cmd.o(.text)
    rstf_proc                                0x080244ab   Thumb Code    16  wm_cmd.o(.text)
    pmtf_proc                                0x080244bb   Thumb Code    16  wm_cmd.o(.text)
    ioc_proc                                 0x080244cb   Thumb Code     4  wm_cmd.o(.text)
    wjoin_proc                               0x080244cf   Thumb Code   174  wm_cmd.o(.text)
    wleav_proc                               0x0802457d   Thumb Code    28  wm_cmd.o(.text)
    wscan_proc                               0x08024599   Thumb Code   112  wm_cmd.o(.text)
    lkstt_proc                               0x08024609   Thumb Code    66  wm_cmd.o(.text)
    entm_proc                                0x0802464b   Thumb Code    90  wm_cmd.o(.text)
    skct_proc                                0x080246a5   Thumb Code   272  wm_cmd.o(.text)
    skstt_proc                               0x080247b5   Thumb Code   146  wm_cmd.o(.text)
    skcls_proc                               0x08024847   Thumb Code    34  wm_cmd.o(.text)
    sksdf_proc                               0x08024869   Thumb Code    26  wm_cmd.o(.text)
    sksnd_proc                               0x08024883   Thumb Code   104  wm_cmd.o(.text)
    skrcv_proc                               0x080248eb   Thumb Code    66  wm_cmd.o(.text)
    skrptm_proc                              0x0802492d   Thumb Code    32  wm_cmd.o(.text)
    sksrcip_proc                             0x0802494d   Thumb Code    20  wm_cmd.o(.text)
    skghbn_proc                              0x08024961   Thumb Code    40  wm_cmd.o(.text)
    wprt_proc                                0x08024989   Thumb Code    38  wm_cmd.o(.text)
    ssid_proc                                0x080249af   Thumb Code   102  wm_cmd.o(.text)
    key_proc                                 0x08024a15   Thumb Code   122  wm_cmd.o(.text)
    encry_proc                               0x08024a8f   Thumb Code    38  wm_cmd.o(.text)
    bssid_proc                               0x08024ab5   Thumb Code    84  wm_cmd.o(.text)
    brdssid_proc                             0x08024b09   Thumb Code    38  wm_cmd.o(.text)
    cntparam_proc                            0x08024b2f   Thumb Code   140  wm_cmd.o(.text)
    chl_proc                                 0x08024bbb   Thumb Code    64  wm_cmd.o(.text)
    chll_proc                                0x08024bfb   Thumb Code    34  wm_cmd.o(.text)
    wreg_proc                                0x08024c1d   Thumb Code    22  wm_cmd.o(.text)
    wbgr_proc                                0x08024c33   Thumb Code    94  wm_cmd.o(.text)
    watc_proc                                0x08024c91   Thumb Code    38  wm_cmd.o(.text)
    wpsm_proc                                0x08024cb7   Thumb Code    38  wm_cmd.o(.text)
    warc_proc                                0x08024cdd   Thumb Code    28  wm_cmd.o(.text)
    warm_proc                                0x08024cf9   Thumb Code    38  wm_cmd.o(.text)
    nip_proc                                 0x08024d1f   Thumb Code   102  wm_cmd.o(.text)
    atm_proc                                 0x08024d85   Thumb Code    38  wm_cmd.o(.text)
    atrm_proc                                0x08024dab   Thumb Code    22  wm_cmd.o(.text)
    aolm_proc                                0x08024dc1   Thumb Code     4  wm_cmd.o(.text)
    portm_proc                               0x08024dc5   Thumb Code    38  wm_cmd.o(.text)
    uart_proc                                0x08024deb   Thumb Code   106  wm_cmd.o(.text)
    atlt_proc                                0x08024e55   Thumb Code    44  wm_cmd.o(.text)
    dns_proc                                 0x08024e81   Thumb Code    64  wm_cmd.o(.text)
    ddns_proc                                0x08024ec1   Thumb Code     4  wm_cmd.o(.text)
    upnp_proc                                0x08024ec5   Thumb Code     4  wm_cmd.o(.text)
    dname_proc                               0x08024ec9   Thumb Code     4  wm_cmd.o(.text)
    atpt_proc                                0x08024ecd   Thumb Code    28  wm_cmd.o(.text)
    dbg_proc                                 0x08024ee9   Thumb Code     4  wm_cmd.o(.text)
    espc_proc                                0x08024eed   Thumb Code    28  wm_cmd.o(.text)
    espt_proc                                0x08024f09   Thumb Code    46  wm_cmd.o(.text)
    webs_proc                                0x08024f37   Thumb Code    74  wm_cmd.o(.text)
    iom_proc                                 0x08024f81   Thumb Code    38  wm_cmd.o(.text)
    cmdm_proc                                0x08024fa7   Thumb Code    38  wm_cmd.o(.text)
    pass_proc                                0x08024fcd   Thumb Code    46  wm_cmd.o(.text)
    oneshot_proc                             0x08024ffb   Thumb Code    40  wm_cmd.o(.text)
    oneshotmode_proc                         0x08025023   Thumb Code    34  wm_cmd.o(.text)
    updp_proc                                0x08025045   Thumb Code    46  wm_cmd.o(.text)
    httpc_proc                               0x08025073   Thumb Code    88  wm_cmd.o(.text)
    fwup_proc                                0x080250cb   Thumb Code    14  wm_cmd.o(.text)
    tem_proc                                 0x080250d9   Thumb Code   192  wm_cmd.o(.text)
    qmac_proc                                0x08025199   Thumb Code    20  wm_cmd.o(.text)
    slist_proc                               0x080251ad   Thumb Code    82  wm_cmd.o(.text)
    softap_lkstt_proc                        0x080251ff   Thumb Code    64  wm_cmd.o(.text)
    softap_ssid_proc                         0x0802523f   Thumb Code   102  wm_cmd.o(.text)
    softap_qmac_proc                         0x080252a5   Thumb Code    20  wm_cmd.o(.text)
    softap_encry_proc                        0x080252b9   Thumb Code    38  wm_cmd.o(.text)
    softap_key_proc                          0x080252df   Thumb Code   122  wm_cmd.o(.text)
    softap_chl_proc                          0x08025359   Thumb Code    62  wm_cmd.o(.text)
    softap_wbgr_proc                         0x08025397   Thumb Code    94  wm_cmd.o(.text)
    softap_nip_proc                          0x080253f5   Thumb Code   124  wm_cmd.o(.text)
    qver_proc                                0x08025471   Thumb Code    12  wm_cmd.o(.text)
    updm_proc                                0x0802547d   Thumb Code    56  wm_cmd.o(.text)
    updd_proc                                0x080254b5   Thumb Code    42  wm_cmd.o(.text)
    regr_proc                                0x080254df   Thumb Code    32  wm_cmd.o(.text)
    regw_proc                                0x080254ff   Thumb Code    40  wm_cmd.o(.text)
    rfr_proc                                 0x08025527   Thumb Code    62  wm_cmd.o(.text)
    rfw_proc                                 0x08025565   Thumb Code    86  wm_cmd.o(.text)
    flsr_proc                                0x080255bb   Thumb Code    66  wm_cmd.o(.text)
    flsw_proc                                0x080255fd   Thumb Code    64  wm_cmd.o(.text)
    txg_proc                                 0x0802563d   Thumb Code    48  wm_cmd.o(.text)
    txg_rate_set_proc                        0x0802566d   Thumb Code    44  wm_cmd.o(.text)
    txg_rate_get_proc                        0x08025699   Thumb Code    42  wm_cmd.o(.text)
    mac_proc                                 0x080256c3   Thumb Code    50  wm_cmd.o(.text)
    hwv_proc                                 0x080256f5   Thumb Code    12  wm_cmd.o(.text)
    spif_proc                                0x08025701   Thumb Code     4  wm_cmd.o(.text)
    lpchl_proc                               0x08025705   Thumb Code    34  wm_cmd.o(.text)
    lptstr_proc                              0x08025727   Thumb Code    42  wm_cmd.o(.text)
    lptstp_proc                              0x08025751   Thumb Code    10  wm_cmd.o(.text)
    lptstt_proc                              0x0802575b   Thumb Code     4  wm_cmd.o(.text)
    lprstr_proc                              0x0802575f   Thumb Code    34  wm_cmd.o(.text)
    lprstp_proc                              0x08025781   Thumb Code    10  wm_cmd.o(.text)
    lprstt_proc                              0x0802578b   Thumb Code     4  wm_cmd.o(.text)
    lppstr_proc                              0x0802578f   Thumb Code     4  wm_cmd.o(.text)
    lppstp_proc                              0x08025793   Thumb Code     4  wm_cmd.o(.text)
    lprfps_proc                              0x08025797   Thumb Code     4  wm_cmd.o(.text)
    lpchrs_proc                              0x0802579b   Thumb Code     2  wm_cmd.o(.text)
    lptbd_proc                               0x0802579d   Thumb Code     2  wm_cmd.o(.text)
    lpstpt_proc                              0x0802579f   Thumb Code    10  wm_cmd.o(.text)
    lpchlr_proc                              0x080257a9   Thumb Code     2  wm_cmd.o(.text)
    lpstpr_proc                              0x080257ab   Thumb Code    10  wm_cmd.o(.text)
    lpragc_proc                              0x080257b5   Thumb Code     4  wm_cmd.o(.text)
    lprsr_proc                               0x080257b9   Thumb Code     4  wm_cmd.o(.text)
    tls_tx_sin                               0x080257bd   Thumb Code    20  wm_cmd.o(.text)
    tls_rx_wave                              0x080257d1   Thumb Code    10  wm_cmd.o(.text)
    tls_tx_lo_proc                           0x080257db   Thumb Code    14  wm_cmd.o(.text)
    tls_tx_iq_mismatch_proc                  0x080257e9   Thumb Code    40  wm_cmd.o(.text)
    tls_freq_error_proc                      0x08025811   Thumb Code    16  wm_cmd.o(.text)
    tls_rf_vcg_ctrl_proc                     0x08025821   Thumb Code    16  wm_cmd.o(.text)
    custdata_proc                            0x08025879   Thumb Code    60  wm_cmd.o(.text)
    tls_set_hspi_fwup_mode                   0x08025937   Thumb Code     6  wm_cmd.o(.text)
    tls_hspi_init                            0x08025ae3   Thumb Code    76  wm_cmd.o(.text)
    uart_tx                                  0x08025b2f   Thumb Code   172  wm_cmd.o(.text)
    uart_tx_sent_callback                    0x08025cb7   Thumb Code    22  wm_cmd.o(.text)
    uart_rx_timeout_handler                  0x08025ccd   Thumb Code    28  wm_cmd.o(.text)
    uart_net_send                            0x08025ce9   Thumb Code   388  wm_cmd.o(.text)
    parse_ricmd_line                         0x08025e6d   Thumb Code   128  wm_cmd.o(.text)
    uart_fwup_send                           0x08025f2d   Thumb Code   176  wm_cmd.o(.text)
    uart_rx                                  0x0802625d   Thumb Code   206  wm_cmd.o(.text)
    tls_uart1_task_rx_cb                     0x0802632b   Thumb Code    60  wm_cmd.o(.text)
    tls_uart_open                            0x08026367   Thumb Code    70  wm_cmd.o(.text)
    tls_uart_init                            0x080263ad   Thumb Code   340  wm_cmd.o(.text)
    tls_uart_close                           0x08026501   Thumb Code     6  wm_cmd.o(.text)
    vPortYield                               0x08026711   Thumb Code    18  wm_rtos.o(.text)
    vPortExitCritical                        0x08026723   Thumb Code    18  wm_rtos.o(.text)
    vListInsertEnd                           0x08026735   Thumb Code    28  wm_rtos.o(.text)
    vListInitialise                          0x08026751   Thumb Code    22  wm_rtos.o(.text)
    vPortEnterCritical                       0x08026767   Thumb Code    24  wm_rtos.o(.text)
    pxPortInitialiseStack                    0x0802677f   Thumb Code    28  wm_rtos.o(.text)
    vListInitialiseItem                      0x0802679b   Thumb Code     6  wm_rtos.o(.text)
    vListRemove                              0x080267a1   Thumb Code    36  wm_rtos.o(.text)
    vTaskIncrementTick                       0x080267c5   Thumb Code   146  wm_rtos.o(.text)
    xTaskResumeAll                           0x08026857   Thumb Code   158  wm_rtos.o(.text)
    vTaskSuspendAll                          0x080268f5   Thumb Code    10  wm_rtos.o(.text)
    vPortFree                                0x080268ff   Thumb Code    54  wm_rtos.o(.text)
    pvPortMalloc                             0x08026935   Thumb Code   168  wm_rtos.o(.text)
    xTaskGenericCreate                       0x080269dd   Thumb Code   376  wm_rtos.o(.text)
    tls_os_task_create                       0x08026b55   Thumb Code    88  wm_rtos.o(.text)
    vTaskGetTaskByPriority                   0x08026be7   Thumb Code   142  wm_rtos.o(.text)
    vTaskDeleteByPriority                    0x08026c75   Thumb Code    86  wm_rtos.o(.text)
    tls_os_task_del                          0x08026ccb   Thumb Code    26  wm_rtos.o(.text)
    vApplicationStackOverflowHook            0x08026ce5   Thumb Code     6  wm_rtos.o(.text)
    vTaskSwitchContext                       0x08026ceb   Thumb Code   190  wm_rtos.o(.text)
    vTaskSuspend                             0x08026da9   Thumb Code    94  wm_rtos.o(.text)
    tls_os_task_suspend                      0x08026e07   Thumb Code    10  wm_rtos.o(.text)
    xTaskIsTaskSuspended                     0x08026e11   Thumb Code    30  wm_rtos.o(.text)
    vTaskResume                              0x08026e2f   Thumb Code    82  wm_rtos.o(.text)
    tls_os_task_resume                       0x08026e81   Thumb Code    10  wm_rtos.o(.text)
    vTaskMissedYield                         0x08026e8b   Thumb Code     8  wm_rtos.o(.text)
    xTaskRemoveFromEventList                 0x08026e93   Thumb Code    80  wm_rtos.o(.text)
    vListInsert                              0x08026fc1   Thumb Code    48  wm_rtos.o(.text)
    vTaskPlaceOnEventList                    0x0802701f   Thumb Code    50  wm_rtos.o(.text)
    vTaskSetTimeOutState                     0x08027051   Thumb Code    12  wm_rtos.o(.text)
    xTaskCheckForTimeOut                     0x0802705d   Thumb Code    72  wm_rtos.o(.text)
    vTaskPriorityDisinherit                  0x080270a5   Thumb Code    64  wm_rtos.o(.text)
    xQueueGenericSend                        0x0802713f   Thumb Code   214  wm_rtos.o(.text)
    xQueueCreateMutex                        0x08027215   Thumb Code    68  wm_rtos.o(.text)
    tls_os_mutex_create                      0x08027259   Thumb Code    20  wm_rtos.o(.text)
    vQueueDelete                             0x0802726d   Thumb Code    20  wm_rtos.o(.text)
    tls_os_mutex_delete                      0x08027281   Thumb Code    10  wm_rtos.o(.text)
    vTaskPriorityInherit                     0x0802728b   Thumb Code    90  wm_rtos.o(.text)
    xTaskGetCurrentTaskHandle                0x080272e5   Thumb Code     6  wm_rtos.o(.text)
    xQueueGenericReceive                     0x08027313   Thumb Code   280  wm_rtos.o(.text)
    tls_os_mutex_acquire                     0x0802742b   Thumb Code    34  wm_rtos.o(.text)
    xQueueGenericSendFromISR                 0x0802744d   Thumb Code    88  wm_rtos.o(.text)
    tls_get_isr_count                        0x080274a5   Thumb Code    18  wm_rtos.o(.text)
    tls_os_mutex_release                     0x080274b7   Thumb Code    72  wm_rtos.o(.text)
    xQueueCreate                             0x080274ff   Thumb Code    98  wm_rtos.o(.text)
    xQueueCreateCountingSemaphore            0x08027561   Thumb Code    18  wm_rtos.o(.text)
    tls_os_sem_create                        0x08027573   Thumb Code    22  wm_rtos.o(.text)
    tls_os_sem_delete                        0x08027589   Thumb Code    10  wm_rtos.o(.text)
    tls_os_sem_acquire                       0x08027593   Thumb Code    34  wm_rtos.o(.text)
    tls_os_sem_release                       0x080275b5   Thumb Code    72  wm_rtos.o(.text)
    xQueueCreateExt                          0x080275fd   Thumb Code    88  wm_rtos.o(.text)
    tls_os_queue_create                      0x08027655   Thumb Code    38  wm_rtos.o(.text)
    vQueueDeleteExt                          0x0802767b   Thumb Code     4  wm_rtos.o(.text)
    tls_os_queue_delete                      0x0802767f   Thumb Code    26  wm_rtos.o(.text)
    tls_os_queue_send                        0x08027699   Thumb Code    76  wm_rtos.o(.text)
    xQueueReceiveFromISR                     0x080276e5   Thumb Code    84  wm_rtos.o(.text)
    tls_os_queue_receive                     0x08027739   Thumb Code    84  wm_rtos.o(.text)
    tls_os_queue_flush                       0x0802778d   Thumb Code     4  wm_rtos.o(.text)
    tls_os_mailbox_create                    0x08027791   Thumb Code    28  wm_rtos.o(.text)
    tls_os_mailbox_delete                    0x080277ad   Thumb Code    10  wm_rtos.o(.text)
    tls_os_mailbox_send                      0x080277b7   Thumb Code    74  wm_rtos.o(.text)
    tls_os_mailbox_receive                   0x08027801   Thumb Code    84  wm_rtos.o(.text)
    xTaskGetTickCountFromISR                 0x08027855   Thumb Code    18  wm_rtos.o(.text)
    tls_os_get_time                          0x08027867   Thumb Code     2  wm_rtos.o(.text)
    tls_os_set_critical                      0x08027869   Thumb Code    18  wm_rtos.o(.text)
    tls_os_release_critical                  0x0802787b   Thumb Code    14  wm_rtos.o(.text)
    xTimerCreateExt                          0x080278c1   Thumb Code    52  wm_rtos.o(.text)
    tls_os_timer_create                      0x080278f5   Thumb Code    40  wm_rtos.o(.text)
    xTaskGetTickCount                        0x0802791d   Thumb Code    18  wm_rtos.o(.text)
    xTaskGetSchedulerState                   0x0802792f   Thumb Code    22  wm_rtos.o(.text)
    xTimerGenericCommand                     0x08027945   Thumb Code    66  wm_rtos.o(.text)
    tls_os_timer_start                       0x08027987   Thumb Code    72  wm_rtos.o(.text)
    tls_os_timer_change                      0x080279cf   Thumb Code   110  wm_rtos.o(.text)
    tls_os_timer_stop                        0x08027a3d   Thumb Code    78  wm_rtos.o(.text)
    tls_os_timer_delete                      0x08027a8b   Thumb Code    18  wm_rtos.o(.text)
    vTaskDelay                               0x08027a9d   Thumb Code    48  wm_rtos.o(.text)
    tls_os_time_delay                        0x08027acd   Thumb Code     2  wm_rtos.o(.text)
    vTaskList                                0x08027b4d   Thumb Code   134  wm_rtos.o(.text)
    tls_os_disp_task_stat_info               0x08027bd3   Thumb Code    38  wm_rtos.o(.text)
    tls_os_init                              0x08027bf9   Thumb Code     2  wm_rtos.o(.text)
    xPortStartScheduler                      0x08027bfb   Thumb Code    28  wm_rtos.o(.text)
    vTaskPlaceOnEventListRestricted          0x08027c71   Thumb Code    34  wm_rtos.o(.text)
    vQueueWaitForMessageRestricted           0x08027c93   Thumb Code    58  wm_rtos.o(.text)
    xTimerCreateTimerTask                    0x08027cf1   Thumb Code    44  wm_rtos.o(.text)
    vTaskStartScheduler                      0x08027d33   Thumb Code    60  wm_rtos.o(.text)
    tls_os_start_scheduler                   0x08027d6f   Thumb Code     2  wm_rtos.o(.text)
    tls_os_get_type                          0x08027d71   Thumb Code     4  wm_rtos.o(.text)
    tls_os_time_tick                         0x08027d75   Thumb Code     2  wm_rtos.o(.text)
    vTaskDelete                              0x08027d77   Thumb Code    88  wm_rtos.o(.text)
    uxTaskPriorityGet                        0x08027dcf   Thumb Code    24  wm_rtos.o(.text)
    vTaskPrioritySet                         0x08027de7   Thumb Code   132  wm_rtos.o(.text)
    xTaskResumeFromISR                       0x08027e6b   Thumb Code   218  wm_rtos.o(.text)
    vPortEndScheduler                        0x08027f45   Thumb Code     2  wm_rtos.o(.text)
    vTaskEndScheduler                        0x08027f47   Thumb Code    14  wm_rtos.o(.text)
    uxTaskGetNumberOfTasks                   0x08027f55   Thumb Code     6  wm_rtos.o(.text)
    vTaskStartTrace                          0x08027f5b   Thumb Code    34  wm_rtos.o(.text)
    ulTaskEndTrace                           0x08027f7d   Thumb Code    24  wm_rtos.o(.text)
    xTaskGetIdleTaskHandle                   0x08027f95   Thumb Code     6  wm_rtos.o(.text)
    uxTaskGetStackHighWaterMark              0x08027f9b   Thumb Code    12  wm_rtos.o(.text)
    tls_get_current_task                     0x08027fa7   Thumb Code     8  wm_rtos.o(.text)
    xTimerCreate                             0x08027faf   Thumb Code    56  wm_rtos.o(.text)
    xTimerIsTimerActive                      0x08027fe7   Thumb Code    26  wm_rtos.o(.text)
    pvTimerGetTimerID                        0x08028001   Thumb Code     4  wm_rtos.o(.text)
    uxQueueMessagesWaiting                   0x08028005   Thumb Code    18  wm_rtos.o(.text)
    uxQueueMessagesWaitingFromISR            0x08028017   Thumb Code     4  wm_rtos.o(.text)
    xQueueIsQueueEmptyFromISR                0x0802801b   Thumb Code    12  wm_rtos.o(.text)
    xQueueIsQueueFullFromISR                 0x08028027   Thumb Code    16  wm_rtos.o(.text)
    xPortGetFreeHeapSize                     0x08028037   Thumb Code     6  wm_rtos.o(.text)
    vPortInitialiseBlocks                    0x0802803d   Thumb Code     2  wm_rtos.o(.text)
    xCoRoutineCreate                         0x0802803f   Thumb Code   154  wm_rtos.o(.text)
    vCoRoutineAddToDelayedList               0x080280d9   Thumb Code    64  wm_rtos.o(.text)
    vCoRoutineSchedule                       0x08028199   Thumb Code   140  wm_rtos.o(.text)
    xCoRoutineRemoveFromEventList            0x08028225   Thumb Code    46  wm_rtos.o(.text)
    OS_CPU_SysTickHandler                    0x08028253   Thumb Code    30  wm_rtos.o(.text)
    lwip_htons                               0x0802845d   Thumb Code     4  lwip2.0.3.o(.text)
    err_to_errno                             0x08028461   Thumb Code    24  lwip2.0.3.o(.text)
    mem_free                                 0x08028479   Thumb Code     4  lwip2.0.3.o(.text)
    sys_arch_unprotect                       0x0802847d   Thumb Code     4  lwip2.0.3.o(.text)
    sys_arch_protect                         0x08028481   Thumb Code     4  lwip2.0.3.o(.text)
    memp_free                                0x08028485   Thumb Code    22  lwip2.0.3.o(.text)
    pbuf_free                                0x0802849b   Thumb Code    96  lwip2.0.3.o(.text)
    netbuf_delete                            0x080284fb   Thumb Code    32  lwip2.0.3.o(.text)
    sys_sem_set_invalid                      0x0802854f   Thumb Code     6  lwip2.0.3.o(.text)
    sys_sem_free                             0x08028555   Thumb Code    18  lwip2.0.3.o(.text)
    netconn_free                             0x08028567   Thumb Code    24  lwip2.0.3.o(.text)
    sys_sem_signal                           0x0802857f   Thumb Code    12  lwip2.0.3.o(.text)
    sys_sem_valid                            0x0802858b   Thumb Code    10  lwip2.0.3.o(.text)
    tcp_arg                                  0x08028595   Thumb Code     8  lwip2.0.3.o(.text)
    sys_mbox_trypost                         0x0802859d   Thumb Code    42  lwip2.0.3.o(.text)
    sys_mbox_valid                           0x080285c7   Thumb Code    10  lwip2.0.3.o(.text)
    tcp_err                                  0x08028699   Thumb Code    10  lwip2.0.3.o(.text)
    tcp_seg_free                             0x080286a3   Thumb Code    26  lwip2.0.3.o(.text)
    lwip_htonl                               0x080286bd   Thumb Code     4  lwip2.0.3.o(.text)
    lwip_standard_chksum                     0x080286c1   Thumb Code    86  lwip2.0.3.o(.text)
    inet_chksum                              0x08028717   Thumb Code    12  lwip2.0.3.o(.text)
    pbuf_cat                                 0x08028723   Thumb Code    40  lwip2.0.3.o(.text)
    pbuf_ref                                 0x08028761   Thumb Code    26  lwip2.0.3.o(.text)
    pbuf_alloced_custom                      0x0802877b   Thumb Code    78  lwip2.0.3.o(.text)
    mem_malloc                               0x080287c9   Thumb Code     4  lwip2.0.3.o(.text)
    memp_malloc                              0x080287cd   Thumb Code    20  lwip2.0.3.o(.text)
    tcp_segs_free                            0x080287e1   Thumb Code    18  lwip2.0.3.o(.text)
    sys_mbox_post                            0x0802881b   Thumb Code    38  lwip2.0.3.o(.text)
    tcpip_callback_with_block                0x08028841   Thumb Code    88  lwip2.0.3.o(.text)
    pbuf_alloc                               0x080288cf   Thumb Code   262  lwip2.0.3.o(.text)
    ip4_frag                                 0x080289d5   Thumb Code   378  lwip2.0.3.o(.text)
    ip4_route                                0x08028b4f   Thumb Code   108  lwip2.0.3.o(.text)
    icmp_dest_unreach                        0x08028c39   Thumb Code     6  lwip2.0.3.o(.text)
    pbuf_header_force                        0x08028cb5   Thumb Code     4  lwip2.0.3.o(.text)
    ip4_addr_isbroadcast_u32                 0x08028cb9   Thumb Code    46  lwip2.0.3.o(.text)
    igmp_lookfor_group                       0x08028ce7   Thumb Code    20  lwip2.0.3.o(.text)
    igmp_input                               0x08028cfb   Thumb Code   268  lwip2.0.3.o(.text)
    pbuf_header                              0x08028e07   Thumb Code     4  lwip2.0.3.o(.text)
    pbuf_copy                                0x08028e0b   Thumb Code   152  lwip2.0.3.o(.text)
    inet_chksum_pbuf                         0x08028ea3   Thumb Code    72  lwip2.0.3.o(.text)
    icmp_input                               0x08028eeb   Thumb Code   390  lwip2.0.3.o(.text)
    inet_chksum_pseudo                       0x08029071   Thumb Code   136  lwip2.0.3.o(.text)
    ip_chksum_pseudo                         0x080290f9   Thumb Code    16  lwip2.0.3.o(.text)
    tcp_rst                                  0x08029109   Thumb Code   138  lwip2.0.3.o(.text)
    tcp_backlog_accepted                     0x08029193   Thumb Code    30  lwip2.0.3.o(.text)
    tcp_pcb_purge                            0x080291b1   Thumb Code   100  lwip2.0.3.o(.text)
    tcp_pcb_remove                           0x08029215   Thumb Code    80  lwip2.0.3.o(.text)
    pbuf_clen                                0x0802929f   Thumb Code    18  lwip2.0.3.o(.text)
    tcp_enqueue_flags                        0x08029349   Thumb Code   180  lwip2.0.3.o(.text)
    tcp_send_fin                             0x080293fd   Thumb Code    48  lwip2.0.3.o(.text)
    tcp_trigger_input_pcb_close              0x0802948f   Thumb Code    12  lwip2.0.3.o(.text)
    sys_now                                  0x0802949b   Thumb Code    22  lwip2.0.3.o(.text)
    sys_timeout_p                            0x080294b1   Thumb Code   152  lwip2.0.3.o(.text)
    tcp_keepalive                            0x080295a1   Thumb Code   106  lwip2.0.3.o(.text)
    tcp_rexmit_rto                           0x0802960b   Thumb Code    50  lwip2.0.3.o(.text)
    pbuf_copy_partial                        0x0802963d   Thumb Code   102  lwip2.0.3.o(.text)
    tcp_zero_window_probe                    0x080296a3   Thumb Code   208  lwip2.0.3.o(.text)
    tcp_slowtmr                              0x08029773   Thumb Code   640  lwip2.0.3.o(.text)
    tcp_process_refused_data                 0x080299f3   Thumb Code   106  lwip2.0.3.o(.text)
    tcp_fasttmr                              0x08029a5d   Thumb Code   102  lwip2.0.3.o(.text)
    tcp_tmr                                  0x08029ac3   Thumb Code    26  lwip2.0.3.o(.text)
    tcp_timer_needed                         0x08029b05   Thumb Code    36  lwip2.0.3.o(.text)
    tcp_close                                0x08029c37   Thumb Code    18  lwip2.0.3.o(.text)
    tcp_update_rcv_ann_wnd                   0x08029c49   Thumb Code    52  lwip2.0.3.o(.text)
    tcp_recved                               0x08029c7d   Thumb Code    66  lwip2.0.3.o(.text)
    tcp_recv_null                            0x08029cbf   Thumb Code    34  lwip2.0.3.o(.text)
    tcp_abandon                              0x08029ce1   Thumb Code   238  lwip2.0.3.o(.text)
    tcp_abort                                0x08029dcf   Thumb Code     4  lwip2.0.3.o(.text)
    tcp_send_empty_ack                       0x08029dd3   Thumb Code   132  lwip2.0.3.o(.text)
    mem_trim                                 0x08029e57   Thumb Code     2  lwip2.0.3.o(.text)
    pbuf_realloc                             0x08029e59   Thumb Code    66  lwip2.0.3.o(.text)
    tcp_seg_copy                             0x08029e9b   Thumb Code    32  lwip2.0.3.o(.text)
    tcp_rexmit                               0x08029f29   Thumb Code    72  lwip2.0.3.o(.text)
    tcp_rexmit_fast                          0x08029f71   Thumb Code    82  lwip2.0.3.o(.text)
    tcp_eff_send_mss_impl                    0x0802a5ff   Thumb Code    32  lwip2.0.3.o(.text)
    tcp_next_iss                             0x0802aa2b   Thumb Code    12  lwip2.0.3.o(.text)
    tcp_alloc                                0x0802aa9d   Thumb Code   250  lwip2.0.3.o(.text)
    tcp_input                                0x0802ac99   Thumb Code  1020  lwip2.0.3.o(.text)
    udp_input                                0x0802b095   Thumb Code   390  lwip2.0.3.o(.text)
    raw_input                                0x0802b21b   Thumb Code   146  lwip2.0.3.o(.text)
    icmp_time_exceeded                       0x0802b39d   Thumb Code     8  lwip2.0.3.o(.text)
    ip4_reass                                0x0802b47d   Thumb Code   532  lwip2.0.3.o(.text)
    ip4_input                                0x0802b691   Thumb Code   638  lwip2.0.3.o(.text)
    netif_poll                               0x0802b90f   Thumb Code    92  lwip2.0.3.o(.text)
    netif_loop_output                        0x0802b96b   Thumb Code   132  lwip2.0.3.o(.text)
    ip4_output_if_opt_src                    0x0802b9ef   Thumb Code   356  lwip2.0.3.o(.text)
    ip4_output_if_opt                        0x0802bb53   Thumb Code    62  lwip2.0.3.o(.text)
    ip4_output_if                            0x0802bb91   Thumb Code    54  lwip2.0.3.o(.text)
    tcp_output                               0x0802bc7f   Thumb Code   454  lwip2.0.3.o(.text)
    tcp_write                                0x0802be8f   Thumb Code   864  lwip2.0.3.o(.text)
    tcp_poll                                 0x0802c387   Thumb Code     8  lwip2.0.3.o(.text)
    tcp_sent                                 0x0802c3df   Thumb Code     8  lwip2.0.3.o(.text)
    tcp_shutdown                             0x0802c3e7   Thumb Code    78  lwip2.0.3.o(.text)
    tcp_accept                               0x0802c435   Thumb Code    14  lwip2.0.3.o(.text)
    tcp_recv                                 0x0802c443   Thumb Code    10  lwip2.0.3.o(.text)
    udp_remove                               0x0802c599   Thumb Code    42  lwip2.0.3.o(.text)
    raw_remove                               0x0802c5c3   Thumb Code    44  lwip2.0.3.o(.text)
    sys_mbox_set_invalid                     0x0802c5ef   Thumb Code     6  lwip2.0.3.o(.text)
    sys_mbox_free                            0x0802c5f5   Thumb Code    32  lwip2.0.3.o(.text)
    sys_arch_mbox_fetch                      0x0802c615   Thumb Code    84  lwip2.0.3.o(.text)
    lwip_netconn_do_delconn                  0x0802c705   Thumb Code   188  lwip2.0.3.o(.text)
    sys_arch_sem_wait                        0x0802c7c1   Thumb Code    48  lwip2.0.3.o(.text)
    tcpip_send_msg_wait_sem                  0x0802c7f1   Thumb Code    38  lwip2.0.3.o(.text)
    netconn_delete                           0x0802c817   Thumb Code    42  lwip2.0.3.o(.text)
    lwip_netconn_do_getaddr                  0x0802c841   Thumb Code   156  lwip2.0.3.o(.text)
    netconn_getaddr                          0x0802c8dd   Thumb Code    42  lwip2.0.3.o(.text)
    lwip_netconn_do_accepted                 0x0802c96d   Thumb Code    88  lwip2.0.3.o(.text)
    netconn_accept                           0x0802c9c5   Thumb Code   134  lwip2.0.3.o(.text)
    lwip_accept                              0x0802ca6d   Thumb Code   294  lwip2.0.3.o(.text)
    accept                                   0x0802cb93   Thumb Code     2  lwip2.0.3.o(.text)
    alg_napt_port_is_used                    0x0802cc09   Thumb Code    50  lwip2.0.3.o(.text)
    tcp_bind                                 0x0802cc3b   Thumb Code   182  lwip2.0.3.o(.text)
    udp_bind                                 0x0802ccf1   Thumb Code   218  lwip2.0.3.o(.text)
    raw_bind                                 0x0802cdcb   Thumb Code    18  lwip2.0.3.o(.text)
    lwip_netconn_do_bind                     0x0802cddd   Thumb Code   130  lwip2.0.3.o(.text)
    netconn_bind                             0x0802ce5f   Thumb Code    40  lwip2.0.3.o(.text)
    lwip_bind                                0x0802ce87   Thumb Code   102  lwip2.0.3.o(.text)
    bind                                     0x0802ceed   Thumb Code     2  lwip2.0.3.o(.text)
    lwip_netconn_do_close                    0x0802ceef   Thumb Code   126  lwip2.0.3.o(.text)
    netconn_shutdown                         0x0802cf6d   Thumb Code    14  lwip2.0.3.o(.text)
    lwip_shutdown                            0x0802cf7b   Thumb Code   110  lwip2.0.3.o(.text)
    shutdown                                 0x0802cfe9   Thumb Code     2  lwip2.0.3.o(.text)
    igmp_leavegroup_netif                    0x0802d097   Thumb Code   138  lwip2.0.3.o(.text)
    igmp_leavegroup                          0x0802d121   Thumb Code    82  lwip2.0.3.o(.text)
    igmp_joingroup_netif                     0x0802d1b1   Thumb Code   122  lwip2.0.3.o(.text)
    igmp_joingroup                           0x0802d22b   Thumb Code    92  lwip2.0.3.o(.text)
    lwip_netconn_do_join_leave_group         0x0802d287   Thumb Code   108  lwip2.0.3.o(.text)
    netconn_join_leave_group                 0x0802d2f3   Thumb Code    44  lwip2.0.3.o(.text)
    lwip_close                               0x0802d31f   Thumb Code    94  lwip2.0.3.o(.text)
    closesocket                              0x0802d37d   Thumb Code     2  lwip2.0.3.o(.text)
    tcp_connect                              0x0802d48d   Thumb Code   310  lwip2.0.3.o(.text)
    udp_connect                              0x0802d5c3   Thumb Code    80  lwip2.0.3.o(.text)
    raw_connect                              0x0802d613   Thumb Code    18  lwip2.0.3.o(.text)
    lwip_netconn_do_connect                  0x0802d625   Thumb Code   182  lwip2.0.3.o(.text)
    netconn_connect                          0x0802d6db   Thumb Code    66  lwip2.0.3.o(.text)
    udp_disconnect                           0x0802d71d   Thumb Code    16  lwip2.0.3.o(.text)
    lwip_netconn_do_disconnect               0x0802d72d   Thumb Code    74  lwip2.0.3.o(.text)
    netconn_disconnect                       0x0802d777   Thumb Code    26  lwip2.0.3.o(.text)
    lwip_connect                             0x0802d791   Thumb Code   104  lwip2.0.3.o(.text)
    connect                                  0x0802d7f9   Thumb Code     2  lwip2.0.3.o(.text)
    lwip_getsockname                         0x0802d873   Thumb Code     4  lwip2.0.3.o(.text)
    getsockname                              0x0802d877   Thumb Code     2  lwip2.0.3.o(.text)
    lwip_getpeername                         0x0802d879   Thumb Code     4  lwip2.0.3.o(.text)
    getpeername                              0x0802d87d   Thumb Code     2  lwip2.0.3.o(.text)
    lwip_setsockopt                          0x0802dabd   Thumb Code   142  lwip2.0.3.o(.text)
    setsockopt                               0x0802db4b   Thumb Code    16  lwip2.0.3.o(.text)
    lwip_getsockopt                          0x0802dd93   Thumb Code   128  lwip2.0.3.o(.text)
    getsockopt                               0x0802de13   Thumb Code    16  lwip2.0.3.o(.text)
    tcp_backlog_delayed                      0x0802de23   Thumb Code    28  lwip2.0.3.o(.text)
    sys_sem_new                              0x0802de3f   Thumb Code    44  lwip2.0.3.o(.text)
    sys_mbox_new                             0x0802de6b   Thumb Code    52  lwip2.0.3.o(.text)
    netconn_alloc                            0x0802de9f   Thumb Code   110  lwip2.0.3.o(.text)
    tcp_listen_with_backlog_and_err          0x0802dfd9   Thumb Code   218  lwip2.0.3.o(.text)
    lwip_netconn_do_listen                   0x0802e0b3   Thumb Code   228  lwip2.0.3.o(.text)
    netconn_listen_with_backlog              0x0802e197   Thumb Code    52  lwip2.0.3.o(.text)
    lwip_listen                              0x0802e1cb   Thumb Code    98  lwip2.0.3.o(.text)
    listen                                   0x0802e22d   Thumb Code     2  lwip2.0.3.o(.text)
    lwip_netconn_do_recv                     0x0802e357   Thumb Code   102  lwip2.0.3.o(.text)
    netconn_recv                             0x0802e487   Thumb Code   100  lwip2.0.3.o(.text)
    netconn_recv_tcp_pbuf                    0x0802e4eb   Thumb Code    20  lwip2.0.3.o(.text)
    lwip_recvfrom                            0x0802e4ff   Thumb Code   456  lwip2.0.3.o(.text)
    lwip_recv                                0x0802e6c7   Thumb Code    22  lwip2.0.3.o(.text)
    recv                                     0x0802e6dd   Thumb Code     2  lwip2.0.3.o(.text)
    recvfrom                                 0x0802e6df   Thumb Code    24  lwip2.0.3.o(.text)
    lwip_netconn_do_write                    0x0802e6f7   Thumb Code   116  lwip2.0.3.o(.text)
    netconn_write_partly                     0x0802e76b   Thumb Code   100  lwip2.0.3.o(.text)
    netbuf_free                              0x0802e7cf   Thumb Code    22  lwip2.0.3.o(.text)
    ip4_output_if_src                        0x0802e7e5   Thumb Code    42  lwip2.0.3.o(.text)
    pbuf_chain                               0x0802e80f   Thumb Code    18  lwip2.0.3.o(.text)
    udp_sendto_if_src                        0x0802e821   Thumb Code   234  lwip2.0.3.o(.text)
    udp_sendto_if                            0x0802e90b   Thumb Code    62  lwip2.0.3.o(.text)
    ip_route4udp                             0x0802e949   Thumb Code   112  lwip2.0.3.o(.text)
    udp_sendto                               0x0802e9b9   Thumb Code    86  lwip2.0.3.o(.text)
    udp_send                                 0x0802ea0f   Thumb Code    14  lwip2.0.3.o(.text)
    raw_sendto                               0x0802ea1d   Thumb Code   154  lwip2.0.3.o(.text)
    raw_send                                 0x0802eab7   Thumb Code     4  lwip2.0.3.o(.text)
    lwip_netconn_do_send                     0x0802eabb   Thumb Code   152  lwip2.0.3.o(.text)
    netconn_send                             0x0802eb53   Thumb Code    30  lwip2.0.3.o(.text)
    netbuf_ref                               0x0802eb71   Thumb Code    64  lwip2.0.3.o(.text)
    lwip_sendto                              0x0802ebb1   Thumb Code   188  lwip2.0.3.o(.text)
    lwip_send                                0x0802ec6d   Thumb Code   132  lwip2.0.3.o(.text)
    send                                     0x0802ecf1   Thumb Code     2  lwip2.0.3.o(.text)
    sendto                                   0x0802ecf3   Thumb Code    24  lwip2.0.3.o(.text)
    tcp_new_ip_type                          0x0802ed0b   Thumb Code     6  lwip2.0.3.o(.text)
    udp_recv                                 0x0802ed83   Thumb Code     6  lwip2.0.3.o(.text)
    udp_new                                  0x0802ed89   Thumb Code    28  lwip2.0.3.o(.text)
    udp_new_ip_type                          0x0802eda5   Thumb Code     2  lwip2.0.3.o(.text)
    raw_recv                                 0x0802ee1b   Thumb Code     6  lwip2.0.3.o(.text)
    raw_new                                  0x0802ee21   Thumb Code    38  lwip2.0.3.o(.text)
    raw_new_ip_type                          0x0802ee47   Thumb Code     4  lwip2.0.3.o(.text)
    lwip_netconn_do_newconn                  0x0802ee4b   Thumb Code    64  lwip2.0.3.o(.text)
    netconn_new_with_proto_and_callback      0x0802ee8b   Thumb Code    68  lwip2.0.3.o(.text)
    lwip_socket                              0x0802eecf   Thumb Code   114  lwip2.0.3.o(.text)
    socket                                   0x0802ef41   Thumb Code     2  lwip2.0.3.o(.text)
    lwip_select                              0x0802f0a7   Thumb Code   666  lwip2.0.3.o(.text)
    select                                   0x0802f341   Thumb Code    16  lwip2.0.3.o(.text)
    lwip_ioctl                               0x0802f351   Thumb Code    76  lwip2.0.3.o(.text)
    ioctlsocket                              0x0802f39d   Thumb Code     2  lwip2.0.3.o(.text)
    lwip_fcntl                               0x0802f39f   Thumb Code    92  lwip2.0.3.o(.text)
    fcntl                                    0x0802f3fb   Thumb Code     2  lwip2.0.3.o(.text)
    pbuf_take                                0x0802f417   Thumb Code    80  lwip2.0.3.o(.text)
    pbuf_skip                                0x0802f467   Thumb Code     4  lwip2.0.3.o(.text)
    pbuf_take_at                             0x0802f46b   Thumb Code    86  lwip2.0.3.o(.text)
    pbuf_put_at                              0x0802f4c1   Thumb Code    30  lwip2.0.3.o(.text)
    pbuf_try_get_at                          0x0802f72f   Thumb Code    32  lwip2.0.3.o(.text)
    lwip_strnicmp                            0x0802f90f   Thumb Code    50  lwip2.0.3.o(.text)
    ip4addr_aton                             0x0802fa71   Thumb Code   292  lwip2.0.3.o(.text)
    dns_gethostbyname_addrtype               0x0802fb95   Thumb Code   160  lwip2.0.3.o(.text)
    lwip_netconn_do_gethostbyname            0x0802fc35   Thumb Code    40  lwip2.0.3.o(.text)
    netconn_gethostbyname                    0x0802fc5d   Thumb Code    88  lwip2.0.3.o(.text)
    lwip_gethostbyname                       0x0802fcb5   Thumb Code    90  lwip2.0.3.o(.text)
    gethostbyname                            0x0802fd0f   Thumb Code     2  lwip2.0.3.o(.text)
    tls_net_set_sourceip                     0x0802fd49   Thumb Code     8  lwip2.0.3.o(.text)
    tls_net_get_sourceip                     0x0802fd51   Thumb Code     8  lwip2.0.3.o(.text)
    get_server_conn                          0x0802fd59   Thumb Code    24  lwip2.0.3.o(.text)
    tls_net_get_socket                       0x0802fd71   Thumb Code    24  lwip2.0.3.o(.text)
    tcp_listen_with_backlog                  0x0803038f   Thumb Code     6  lwip2.0.3.o(.text)
    tcp_new                                  0x08030395   Thumb Code     6  lwip2.0.3.o(.text)
    tls_socket_create                        0x080306c3   Thumb Code   148  lwip2.0.3.o(.text)
    dns_getserver                            0x08030757   Thumb Code    16  lwip2.0.3.o(.text)
    tls_netif_get_ethif                      0x08030767   Thumb Code    60  lwip2.0.3.o(.text)
    tls_socket_get_status                    0x080307a3   Thumb Code   272  lwip2.0.3.o(.text)
    tls_socket_close                         0x080308b3   Thumb Code    74  lwip2.0.3.o(.text)
    tls_socket_udp_sendto                    0x0803093b   Thumb Code   156  lwip2.0.3.o(.text)
    tls_socket_send                          0x080309d7   Thumb Code   244  lwip2.0.3.o(.text)
    tls_net_init                             0x08030acb   Thumb Code    14  lwip2.0.3.o(.text)
    lwip_strnstr                             0x08030ad9   Thumb Code    62  lwip2.0.3.o(.text)
    lwip_stricmp                             0x08030b17   Thumb Code    46  lwip2.0.3.o(.text)
    lwip_itoa                                0x08030b45   Thumb Code    74  lwip2.0.3.o(.text)
    dns_init                                 0x08030b8f   Thumb Code     2  lwip2.0.3.o(.text)
    dns_setserver                            0x08030b91   Thumb Code    22  lwip2.0.3.o(.text)
    dns_tmr                                  0x08030ba7   Thumb Code    20  lwip2.0.3.o(.text)
    dns_gethostbyname                        0x08030bbb   Thumb Code    16  lwip2.0.3.o(.text)
    alg_napt_event_handle                    0x08030bcb   Thumb Code    44  lwip2.0.3.o(.text)
    sys_timeouts_init                        0x08030c29   Thumb Code    94  lwip2.0.3.o(.text)
    igmp_init                                0x08030c87   Thumb Code    16  lwip2.0.3.o(.text)
    tcp_init                                 0x08030c97   Thumb Code     2  lwip2.0.3.o(.text)
    udp_init                                 0x08030c99   Thumb Code     2  lwip2.0.3.o(.text)
    alg_napt_init                            0x08030c9b   Thumb Code    34  lwip2.0.3.o(.text)
    igmp_report_groups                       0x08030cbd   Thumb Code    76  lwip2.0.3.o(.text)
    ethernet_output                          0x08030d09   Thumb Code    76  lwip2.0.3.o(.text)
    etharp_request                           0x08030de5   Thumb Code     6  lwip2.0.3.o(.text)
    netif_set_up                             0x08030e1b   Thumb Code    26  lwip2.0.3.o(.text)
    dhcp_network_changed                     0x080311d1   Thumb Code    44  lwip2.0.3.o(.text)
    netif_set_link_up                        0x080311fd   Thumb Code    46  lwip2.0.3.o(.text)
    tcpip_inpkt                              0x0803122b   Thumb Code    60  lwip2.0.3.o(.text)
    etharp_update_arp_entry                  0x0803136d   Thumb Code   160  lwip2.0.3.o(.text)
    etharp_input                             0x0803140d   Thumb Code   174  lwip2.0.3.o(.text)
    ethernet_input                           0x080314bb   Thumb Code   202  lwip2.0.3.o(.text)
    tcpip_input                              0x08031585   Thumb Code    20  lwip2.0.3.o(.text)
    igmp_start                               0x080315b1   Thumb Code    44  lwip2.0.3.o(.text)
    raw_netif_ip_addr_changed                0x080315dd   Thumb Code    50  lwip2.0.3.o(.text)
    udp_netif_ip_addr_changed                0x0803160f   Thumb Code    48  lwip2.0.3.o(.text)
    tcp_netif_ip_addr_changed                0x0803163f   Thumb Code    74  lwip2.0.3.o(.text)
    netif_set_ipaddr                         0x08031689   Thumb Code    80  lwip2.0.3.o(.text)
    netif_set_gw                             0x080316d9   Thumb Code     8  lwip2.0.3.o(.text)
    netif_set_netmask                        0x080316e1   Thumb Code     8  lwip2.0.3.o(.text)
    netif_set_addr                           0x080316e9   Thumb Code    68  lwip2.0.3.o(.text)
    netif_add                                0x0803172d   Thumb Code   102  lwip2.0.3.o(.text)
    netif_init                               0x08031793   Thumb Code    54  lwip2.0.3.o(.text)
    memp_init_pool                           0x080317c9   Thumb Code     2  lwip2.0.3.o(.text)
    memp_init                                0x080317cb   Thumb Code    12  lwip2.0.3.o(.text)
    mem_init                                 0x080317d7   Thumb Code     2  lwip2.0.3.o(.text)
    sys_init                                 0x080317d9   Thumb Code     2  lwip2.0.3.o(.text)
    stats_init                               0x080317db   Thumb Code     2  lwip2.0.3.o(.text)
    lwip_init                                0x080317dd   Thumb Code    26  lwip2.0.3.o(.text)
    mem_calloc                               0x080317f7   Thumb Code     4  lwip2.0.3.o(.text)
    memp_malloc_pool                         0x080317fb   Thumb Code    10  lwip2.0.3.o(.text)
    memp_free_pool                           0x08031805   Thumb Code    14  lwip2.0.3.o(.text)
    netif_input                              0x08031813   Thumb Code    16  lwip2.0.3.o(.text)
    netif_set_default                        0x08031823   Thumb Code     8  lwip2.0.3.o(.text)
    etharp_cleanup_netif                     0x0803182b   Thumb Code    42  lwip2.0.3.o(.text)
    netif_set_down                           0x08031855   Thumb Code    56  lwip2.0.3.o(.text)
    igmp_stop                                0x0803188d   Thumb Code    44  lwip2.0.3.o(.text)
    netif_remove                             0x080318b9   Thumb Code   108  lwip2.0.3.o(.text)
    netif_find                               0x08031925   Thumb Code    60  lwip2.0.3.o(.text)
    netif_set_status_callback                0x08031961   Thumb Code     8  lwip2.0.3.o(.text)
    netif_set_link_down                      0x08031969   Thumb Code    52  lwip2.0.3.o(.text)
    pbuf_dechain                             0x0803199d   Thumb Code    42  lwip2.0.3.o(.text)
    pbuf_coalesce                            0x080319c7   Thumb Code    42  lwip2.0.3.o(.text)
    pbuf_get_at                              0x080319f1   Thumb Code    18  lwip2.0.3.o(.text)
    pbuf_memcmp                              0x08031a03   Thumb Code    80  lwip2.0.3.o(.text)
    pbuf_memfind                             0x08031a53   Thumb Code    58  lwip2.0.3.o(.text)
    pbuf_strstr                              0x08031a8d   Thumb Code    50  lwip2.0.3.o(.text)
    sys_msleep                               0x08031abf   Thumb Code    34  lwip2.0.3.o(.text)
    tcp_txnow                                0x08031ae1   Thumb Code    28  lwip2.0.3.o(.text)
    tcp_setprio                              0x08031afd   Thumb Code     4  lwip2.0.3.o(.text)
    tcp_debug_state_str                      0x08031b01   Thumb Code     8  lwip2.0.3.o(.text)
    udp_bind_multicast_netif                 0x08031b09   Thumb Code     8  lwip2.0.3.o(.text)
    inet_chksum_pseudo_partial               0x08031b11   Thumb Code    48  lwip2.0.3.o(.text)
    ip_chksum_pseudo_partial                 0x08031b41   Thumb Code    24  lwip2.0.3.o(.text)
    print_ipaddr                             0x08031b59   Thumb Code    20  lwip2.0.3.o(.text)
    sys_untimeout_p                          0x08031b6d   Thumb Code    74  lwip2.0.3.o(.text)
    sys_restart_timeouts                     0x08031bb7   Thumb Code    14  lwip2.0.3.o(.text)
    sys_timeouts_mbox_fetch_p                0x08031bc5   Thumb Code   154  lwip2.0.3.o(.text)
    tls_get_netif                            0x08031d69   Thumb Code     6  lwip2.0.3.o(.text)
    ethernetif_input                         0x08031d6f   Thumb Code    68  lwip2.0.3.o(.text)
    alg_input                                0x08032317   Thumb Code    64  lwip2.0.3.o(.text)
    ip_reass_tmr                             0x08032357   Thumb Code    40  lwip2.0.3.o(.text)
    ip4_addr_netmask_valid                   0x0803237f   Thumb Code    34  lwip2.0.3.o(.text)
    ipaddr_addr                              0x080323a1   Thumb Code    20  lwip2.0.3.o(.text)
    ip4addr_ntoa_r                           0x080323b5   Thumb Code   120  lwip2.0.3.o(.text)
    ip4addr_ntoa                             0x0803242d   Thumb Code     6  lwip2.0.3.o(.text)
    ip4_set_default_multicast_netif          0x08032433   Thumb Code     6  lwip2.0.3.o(.text)
    ip4_output                               0x08032439   Thumb Code    62  lwip2.0.3.o(.text)
    dhcp_renew                               0x08032aaf   Thumb Code   216  lwip2.0.3.o(.text)
    dhcp_supplied_address                    0x08032c71   Thumb Code    26  lwip2.0.3.o(.text)
    dhcp_release                             0x08032c8b   Thumb Code   158  lwip2.0.3.o(.text)
    dhcp_coarse_tmr                          0x08032d29   Thumb Code   170  lwip2.0.3.o(.text)
    dhcp_fine_tmr                            0x08032dd3   Thumb Code    48  lwip2.0.3.o(.text)
    dhcp_set_struct                          0x08032e03   Thumb Code    18  lwip2.0.3.o(.text)
    dhcp_cleanup                             0x08032e15   Thumb Code    20  lwip2.0.3.o(.text)
    dhcp_stop                                0x08032e29   Thumb Code    36  lwip2.0.3.o(.text)
    dhcp_start                               0x08032e4d   Thumb Code    98  lwip2.0.3.o(.text)
    dhcp_inform                              0x08032eaf   Thumb Code   112  lwip2.0.3.o(.text)
    tls_dhcp_get_ip_timeout_flag             0x08032f1f   Thumb Code     8  lwip2.0.3.o(.text)
    etharp_tmr                               0x08032f27   Thumb Code    94  lwip2.0.3.o(.text)
    etharp_add_static_entry                  0x08032f85   Thumb Code    32  lwip2.0.3.o(.text)
    etharp_remove_static_entry               0x08032fa5   Thumb Code    44  lwip2.0.3.o(.text)
    etharp_find_addr                         0x08032fd1   Thumb Code    74  lwip2.0.3.o(.text)
    etharp_get_entry                         0x0803301b   Thumb Code    42  lwip2.0.3.o(.text)
    etharp_query                             0x0803309f   Thumb Code   258  lwip2.0.3.o(.text)
    etharp_output                            0x080331a1   Thumb Code   234  lwip2.0.3.o(.text)
    igmp_tmr                                 0x0803328b   Thumb Code    92  lwip2.0.3.o(.text)
    sys_thread_new                           0x080332e7   Thumb Code   186  lwip2.0.3.o(.text)
    tcpip_output                             0x0803344f   Thumb Code    72  lwip2.0.3.o(.text)
    ethernetif_init                          0x08033497   Thumb Code    98  lwip2.0.3.o(.text)
    tcpip_api_call                           0x080335cf   Thumb Code    62  lwip2.0.3.o(.text)
    netifapi_netif_common                    0x0803360d   Thumb Code    20  lwip2.0.3.o(.text)
    netifapi_netif_add                       0x08033641   Thumb Code    44  lwip2.0.3.o(.text)
    tcpip_init                               0x080336ed   Thumb Code    44  lwip2.0.3.o(.text)
    Tcpip_stack_init                         0x08033719   Thumb Code   156  lwip2.0.3.o(.text)
    tls_ethernet_init                        0x080337b5   Thumb Code    62  lwip2.0.3.o(.text)
    tls_dhcp_start                           0x080337f3   Thumb Code    14  lwip2.0.3.o(.text)
    tls_dhcp_stop                            0x08033801   Thumb Code    14  lwip2.0.3.o(.text)
    netifapi_netif_set_addr                  0x0803381d   Thumb Code   128  lwip2.0.3.o(.text)
    tls_netif_set_addr                       0x0803389d   Thumb Code    12  lwip2.0.3.o(.text)
    tls_netif_dns_setserver                  0x080338a9   Thumb Code     4  lwip2.0.3.o(.text)
    tls_netif_set_up                         0x080338ad   Thumb Code    22  lwip2.0.3.o(.text)
    tls_netif_set_down                       0x080338c3   Thumb Code    10  lwip2.0.3.o(.text)
    tls_netif_remove_status_event            0x080338cd   Thumb Code    58  lwip2.0.3.o(.text)
    tls_netif_add_status_event               0x08033907   Thumb Code    64  lwip2.0.3.o(.text)
    tls_dhcps_start                          0x08033947   Thumb Code    10  lwip2.0.3.o(.text)
    tls_dhcps_stop                           0x08033951   Thumb Code     4  lwip2.0.3.o(.text)
    tls_dnss_start                           0x08033955   Thumb Code    12  lwip2.0.3.o(.text)
    tls_dnss_stop                            0x08033961   Thumb Code     4  lwip2.0.3.o(.text)
    tls_dhcps_getip                          0x08033965   Thumb Code     4  lwip2.0.3.o(.text)
    tls_netif2_set_up                        0x08033969   Thumb Code    26  lwip2.0.3.o(.text)
    tls_netif2_set_down                      0x08033983   Thumb Code    12  lwip2.0.3.o(.text)
    tls_netif2_set_addr                      0x0803398f   Thumb Code    20  lwip2.0.3.o(.text)
    tls_dhcps_setdns                         0x080339a3   Thumb Code    20  lwip2.0.3.o(.text)
    tcpip_callbackmsg_new                    0x080339b7   Thumb Code    26  lwip2.0.3.o(.text)
    tcpip_callbackmsg_delete                 0x080339d1   Thumb Code     8  lwip2.0.3.o(.text)
    tcpip_trycallback                        0x080339d9   Thumb Code    10  lwip2.0.3.o(.text)
    pbuf_free_callback                       0x080339e7   Thumb Code    10  lwip2.0.3.o(.text)
    mem_free_callback                        0x080339f1   Thumb Code    10  lwip2.0.3.o(.text)
    netconn_sendto                           0x080339fb   Thumb Code    20  lwip2.0.3.o(.text)
    netconn_close                            0x08033a0f   Thumb Code     6  lwip2.0.3.o(.text)
    netbuf_new                               0x08033a15   Thumb Code    24  lwip2.0.3.o(.text)
    netbuf_alloc                             0x08033a2d   Thumb Code    42  lwip2.0.3.o(.text)
    netbuf_chain                             0x08033a57   Thumb Code    38  lwip2.0.3.o(.text)
    netbuf_data                              0x08033a7d   Thumb Code    38  lwip2.0.3.o(.text)
    netbuf_next                              0x08033aa3   Thumb Code    30  lwip2.0.3.o(.text)
    netbuf_first                             0x08033ac1   Thumb Code    10  lwip2.0.3.o(.text)
    lwip_gethostbyname_r                     0x08033acb   Thumb Code   148  lwip2.0.3.o(.text)
    lwip_freeaddrinfo                        0x08033b5f   Thumb Code    22  lwip2.0.3.o(.text)
    lwip_getaddrinfo                         0x08033b75   Thumb Code   254  lwip2.0.3.o(.text)
    lwip_socket_thread_init                  0x08033c73   Thumb Code     2  lwip2.0.3.o(.text)
    lwip_socket_thread_cleanup               0x08033c75   Thumb Code     2  lwip2.0.3.o(.text)
    lwip_read                                0x08033c77   Thumb Code    46  lwip2.0.3.o(.text)
    lwip_sendmsg                             0x08033ca5   Thumb Code   380  lwip2.0.3.o(.text)
    lwip_write                               0x08033e21   Thumb Code     6  lwip2.0.3.o(.text)
    lwip_writev                              0x08033e27   Thumb Code    32  lwip2.0.3.o(.text)
    HTTPClientSetLocalConnection             0x080345fd   Thumb Code     4  wm_http_compile.o(.text)
    HTTPClientSetVerb                        0x08034601   Thumb Code    50  wm_http_compile.o(.text)
    HTTPClientOpenRequest                    0x08034633   Thumb Code   102  wm_http_compile.o(.text)
    HTTPWrapperGetUpTime                     0x08034699   Thumb Code     4  wm_http_compile.o(.text)
    HTTPClientReset                          0x08034739   Thumb Code    10  wm_http_compile.o(.text)
    HTTPIntrnConnectionClose                 0x08034743   Thumb Code    48  wm_http_compile.o(.text)
    HTTPClientCloseRequest                   0x08034773   Thumb Code    52  wm_http_compile.o(.text)
    HTTPClientAddRequestHeaders              0x0803482f   Thumb Code    44  wm_http_compile.o(.text)
    HTTPWrapperGetSocketError                0x0803485b   Thumb Code    10  wm_http_compile.o(.text)
    HTTPWrapperItoa                          0x08034959   Thumb Code    56  wm_http_compile.o(.text)
    HTTPStrInsensitiveCompare                0x08034991   Thumb Code    94  wm_http_compile.o(.text)
    HTTPStrCaseStr                           0x080349ef   Thumb Code   122  wm_http_compile.o(.text)
    HTTPStrExtract                           0x08034cf5   Thumb Code    20  wm_http_compile.o(.text)
    HTTPWrapperGetHostByName                 0x08034d09   Thumb Code   172  wm_http_compile.o(.text)
    HTTPStrSearch                            0x08034f1f   Thumb Code    52  wm_http_compile.o(.text)
    HTTPClientSendRequest                    0x08035095   Thumb Code   458  wm_http_compile.o(.text)
    HTTPStrGetToken                          0x0803525f   Thumb Code   106  wm_http_compile.o(.text)
    HTTPClientRecvResponse                   0x08035727   Thumb Code     8  wm_http_compile.o(.text)
    HTTPStrLToH                              0x0803572f   Thumb Code    52  wm_http_compile.o(.text)
    HTTPClientWriteData                      0x08035763   Thumb Code   204  wm_http_compile.o(.text)
    HTTPStrHToL                              0x0803582f   Thumb Code   198  wm_http_compile.o(.text)
    HTTPClientReadData                       0x080358f5   Thumb Code   246  wm_http_compile.o(.text)
    HTTPClientGetInfo                        0x080359eb   Thumb Code    50  wm_http_compile.o(.text)
    HTTPClientGetNextHeader                  0x08035a1d   Thumb Code   138  wm_http_compile.o(.text)
    HTTPClientFindFirstHeader                0x08035aa7   Thumb Code    54  wm_http_compile.o(.text)
    HTTPClientFindCloseHeader                0x08035add   Thumb Code    16  wm_http_compile.o(.text)
    stricmp                                  0x08035aed   Thumb Code    38  wm_http_compile.o(.text)
    HTTPWrapperIsAscii                       0x08035b13   Thumb Code    12  wm_http_compile.o(.text)
    HTTPWrapperToUpper                       0x08035b1f   Thumb Code    28  wm_http_compile.o(.text)
    HTTPWrapperToLower                       0x08035b3b   Thumb Code    28  wm_http_compile.o(.text)
    HTTPWrapperIsAlpha                       0x08035b57   Thumb Code    34  wm_http_compile.o(.text)
    HTTPWrapperIsAlNum                       0x08035b79   Thumb Code    38  wm_http_compile.o(.text)
    HTTPWrapperShutDown                      0x08035b9f   Thumb Code     4  wm_http_compile.o(.text)
    HTTPWrapperInitRandomeNumber             0x08035ba3   Thumb Code    14  wm_http_compile.o(.text)
    HTTPWrapperGetRandomeNumber              0x08035bb1   Thumb Code    32  wm_http_compile.o(.text)
    http_client_task_init                    0x08035d99   Thumb Code    48  wm_http_compile.o(.text)
    http_client_post                         0x08035dc9   Thumb Code   196  wm_http_compile.o(.text)
    ping_test_stop                           0x08036157   Thumb Code    12  ping.o(.text)
    ping_test_create_task                    0x0803616d   Thumb Code    92  ping.o(.text)
    ping_test_start                          0x080361c9   Thumb Code    36  ping.o(.text)
    csArc4Encrypt                            0x080365a1   Thumb Code    16  wm_matrixssl_compile.o(.text)
    csArc4Decrypt                            0x080365b1   Thumb Code    16  wm_matrixssl_compile.o(.text)
    csAesInit                                0x080365c1   Thumb Code    72  wm_matrixssl_compile.o(.text)
    csAesEncrypt                             0x08036609   Thumb Code     8  wm_matrixssl_compile.o(.text)
    csAesDecrypt                             0x08036611   Thumb Code     8  wm_matrixssl_compile.o(.text)
    ssl3HMACSha1                             0x08036649   Thumb Code   176  wm_matrixssl_compile.o(.text)
    tlsHMACSha1                              0x080366f9   Thumb Code   140  wm_matrixssl_compile.o(.text)
    tlsHMACSha2                              0x08036785   Thumb Code   156  wm_matrixssl_compile.o(.text)
    ssl3HMACMd5                              0x08036913   Thumb Code   174  wm_matrixssl_compile.o(.text)
    tlsHMACMd5                               0x080369c1   Thumb Code   138  wm_matrixssl_compile.o(.text)
    _psTrace                                 0x08036af7   Thumb Code     8  wm_matrixssl_compile.o(.text)
    _psError                                 0x08036aff   Thumb Code    14  wm_matrixssl_compile.o(.text)
    _psTraceInt                              0x08036b0d   Thumb Code     4  wm_matrixssl_compile.o(.text)
    _psTraceStr                              0x08036b11   Thumb Code    12  wm_matrixssl_compile.o(.text)
    csRsaEncryptPub                          0x08036b1d   Thumb Code    68  wm_matrixssl_compile.o(.text)
    csRsaDecryptPub                          0x08036b61   Thumb Code    66  wm_matrixssl_compile.o(.text)
    csRsaEncryptPriv                         0x08036ba3   Thumb Code    66  wm_matrixssl_compile.o(.text)
    csRsaDecryptPriv                         0x08036be5   Thumb Code    66  wm_matrixssl_compile.o(.text)
    matrixSslSetCipherSuiteEnabledStatus     0x08036c27   Thumb Code   140  wm_matrixssl_compile.o(.text)
    csCheckCertAgainstCipherSuite            0x08036cb3   Thumb Code    88  wm_matrixssl_compile.o(.text)
    sslGetCipherSpec                         0x08036d0b   Thumb Code    86  wm_matrixssl_compile.o(.text)
    sslGetCipherSpecList                     0x08036d61   Thumb Code   124  wm_matrixssl_compile.o(.text)
    sslGetCipherSpecListLen                  0x08036ddd   Thumb Code    48  wm_matrixssl_compile.o(.text)
    matrixSslSetKexFlags                     0x08036e0d   Thumb Code     2  wm_matrixssl_compile.o(.text)
    sslInitHSHash                            0x08036e0f   Thumb Code    32  wm_matrixssl_compile.o(.text)
    sslUpdateHSHash                          0x08036e2f   Thumb Code    76  wm_matrixssl_compile.o(.text)
    prf                                      0x080370c1   Thumb Code   130  wm_matrixssl_compile.o(.text)
    prf2                                     0x0803722b   Thumb Code    94  wm_matrixssl_compile.o(.text)
    sslGenerateFinishedHash                  0x08037339   Thumb Code   222  wm_matrixssl_compile.o(.text)
    sslSnapshotHSHash                        0x08037417   Thumb Code   100  wm_matrixssl_compile.o(.text)
    _psErrorStr                              0x08037591   Thumb Code    18  wm_matrixssl_compile.o(.text)
    matrixSslOpenWithConfig                  0x080375a3   Thumb Code    96  wm_matrixssl_compile.o(.text)
    matrixSslGetPrngData                     0x08037603   Thumb Code    12  wm_matrixssl_compile.o(.text)
    matrixSslClose                           0x0803760f   Thumb Code    18  wm_matrixssl_compile.o(.text)
    matrixSslNewKeys                         0x08037621   Thumb Code    36  wm_matrixssl_compile.o(.text)
    matrixSslLoadRsaKeysMem                  0x0803772d   Thumb Code    40  wm_matrixssl_compile.o(.text)
    matrixSslDeleteKeys                      0x08037755   Thumb Code    58  wm_matrixssl_compile.o(.text)
    clearFlightList                          0x0803778f   Thumb Code    28  wm_matrixssl_compile.o(.text)
    clearPkaAfter                            0x080377ab   Thumb Code    36  wm_matrixssl_compile.o(.text)
    matrixUpdateSession                      0x080377cf   Thumb Code   194  wm_matrixssl_compile.o(.text)
    matrixSslDeleteSession                   0x08037891   Thumb Code   170  wm_matrixssl_compile.o(.text)
    sslActivateWriteCipher                   0x0803793b   Thumb Code   248  wm_matrixssl_compile.o(.text)
    sslActivateReadCipher                    0x08037a33   Thumb Code   170  wm_matrixssl_compile.o(.text)
    matrixSslNewSession                      0x08037add   Thumb Code   510  wm_matrixssl_compile.o(.text)
    matrixClearSession                       0x08037cdb   Thumb Code   194  wm_matrixssl_compile.o(.text)
    matrixSslSetSessionOption                0x08037d9d   Thumb Code    66  wm_matrixssl_compile.o(.text)
    matrixSslGetAnonStatus                   0x08037ddf   Thumb Code     8  wm_matrixssl_compile.o(.text)
    matrixSslHandshakeIsComplete             0x08037de7   Thumb Code    16  wm_matrixssl_compile.o(.text)
    matrixSslSetCertValidator                0x08037df7   Thumb Code    14  wm_matrixssl_compile.o(.text)
    psGetTime                                0x08037e05   Thumb Code    62  wm_matrixssl_compile.o(.text)
    matrixRegisterSession                    0x08037e43   Thumb Code   186  wm_matrixssl_compile.o(.text)
    psDiffMsecs                              0x08037efd   Thumb Code    38  wm_matrixssl_compile.o(.text)
    matrixResumeSession                      0x08037f23   Thumb Code   212  wm_matrixssl_compile.o(.text)
    matrixServerSetKeysSNI                   0x08037ff7   Thumb Code    48  wm_matrixssl_compile.o(.text)
    matrixSslDeleteSessionTicketKey          0x08038027   Thumb Code    78  wm_matrixssl_compile.o(.text)
    matrixSslSetSessionTicketCallback        0x08038075   Thumb Code     4  wm_matrixssl_compile.o(.text)
    matrixSslLoadSessionTicketKeys           0x08038079   Thumb Code   168  wm_matrixssl_compile.o(.text)
    matrixSessionTicketLen                   0x08038121   Thumb Code     4  wm_matrixssl_compile.o(.text)
    sslWritePad                              0x08038125   Thumb Code    30  wm_matrixssl_compile.o(.text)
    matrixCreateSessionTicket                0x08038143   Thumb Code   300  wm_matrixssl_compile.o(.text)
    matrixUnlockSessionTicket                0x0803826f   Thumb Code   250  wm_matrixssl_compile.o(.text)
    matrixSslGetSessionId                    0x08038369   Thumb Code    96  wm_matrixssl_compile.o(.text)
    matrixSslCreateSNIext                    0x080383c9   Thumb Code    66  wm_matrixssl_compile.o(.text)
    sslResetContext                          0x0803840b   Thumb Code    58  wm_matrixssl_compile.o(.text)
    matrixValidateCerts                      0x0803848b   Thumb Code   366  wm_matrixssl_compile.o(.text)
    matrixUserCertValidator                  0x080385f9   Thumb Code    28  wm_matrixssl_compile.o(.text)
    psWriteHandshakeHeader                   0x080387f7   Thumb Code    20  wm_matrixssl_compile.o(.text)
    psWriteRecordInfo                        0x0803880b   Thumb Code    32  wm_matrixssl_compile.o(.text)
    matrixSslEncodeClientHello               0x0803899d   Thumb Code  1068  wm_matrixssl_compile.o(.text)
    matrixSslNewClientSession                0x08038dc9   Thumb Code   346  wm_matrixssl_compile.o(.text)
    matrixSslNewSessionId                    0x08038f23   Thumb Code    32  wm_matrixssl_compile.o(.text)
    matrixSslClearSessionId                  0x08038f43   Thumb Code     6  wm_matrixssl_compile.o(.text)
    matrixSslDeleteSessionId                 0x08038f49   Thumb Code    34  wm_matrixssl_compile.o(.text)
    matrixSslNewServerSession                0x08038f6b   Thumb Code    96  wm_matrixssl_compile.o(.text)
    matrixSslRegisterSNICallback             0x08038fcb   Thumb Code     6  wm_matrixssl_compile.o(.text)
    matrixSslGetReadbuf                      0x08038fd1   Thumb Code    80  wm_matrixssl_compile.o(.text)
    matrixSslGetOutdata                      0x08039021   Thumb Code    70  wm_matrixssl_compile.o(.text)
    matrixSslGetEncodedSize                  0x08039067   Thumb Code   132  wm_matrixssl_compile.o(.text)
    matrixSslGetWritebuf                     0x080390eb   Thumb Code   386  wm_matrixssl_compile.o(.text)
    matrixSslEncode                          0x0803926d   Thumb Code   588  wm_matrixssl_compile.o(.text)
    matrixSslEncodeToUserBuf                 0x080394b9   Thumb Code    34  wm_matrixssl_compile.o(.text)
    matrixSslEncodeWritebuf                  0x080394db   Thumb Code   250  wm_matrixssl_compile.o(.text)
    matrixSslEncodeToOutdata                 0x080395d5   Thumb Code   222  wm_matrixssl_compile.o(.text)
    sslDeriveKeys                            0x08039af9   Thumb Code   188  wm_matrixssl_compile.o(.text)
    tlsDeriveKeys                            0x08039bb5   Thumb Code   370  wm_matrixssl_compile.o(.text)
    sslCreateKeys                            0x08039d27   Thumb Code    12  wm_matrixssl_compile.o(.text)
    sslEncodeResponse                        0x0803a57f   Thumb Code  1112  wm_matrixssl_compile.o(.text)
    matrixSslDecode                          0x0803b85d   Thumb Code  1630  wm_matrixssl_compile.o(.text)
    matrixSslReceivedData                    0x0803bebb   Thumb Code  1274  wm_matrixssl_compile.o(.text)
    matrixSslProcessedData                   0x0803c3b5   Thumb Code   130  wm_matrixssl_compile.o(.text)
    sslEncodeClosureAlert                    0x0803c437   Thumb Code    30  wm_matrixssl_compile.o(.text)
    matrixSslEncodeClosureAlert              0x0803c455   Thumb Code   196  wm_matrixssl_compile.o(.text)
    matrixSslEncodeHelloRequest              0x0803c519   Thumb Code   138  wm_matrixssl_compile.o(.text)
    matrixSslEncodeRehandshake               0x0803c5a3   Thumb Code   408  wm_matrixssl_compile.o(.text)
    matrixSslDisableRehandshakes             0x0803c73b   Thumb Code    22  wm_matrixssl_compile.o(.text)
    matrixSslReEnableRehandshakes            0x0803c751   Thumb Code    22  wm_matrixssl_compile.o(.text)
    matrixSslGetRehandshakeCredits           0x0803c767   Thumb Code    14  wm_matrixssl_compile.o(.text)
    matrixSslAddRehandshakeCredits           0x0803c775   Thumb Code    26  wm_matrixssl_compile.o(.text)
    matrixSslSentData                        0x0803c78f   Thumb Code   174  wm_matrixssl_compile.o(.text)
    matrixSslNewHelloExtension               0x0803c83d   Thumb Code    36  wm_matrixssl_compile.o(.text)
    matrixSslDeleteHelloExtension            0x0803c861   Thumb Code    44  wm_matrixssl_compile.o(.text)
    matrixSslLoadHelloExtension              0x0803c88d   Thumb Code   122  wm_matrixssl_compile.o(.text)
    _psErrorInt                              0x0803c907   Thumb Code    16  wm_matrixssl_compile.o(.text)
    psCompareTime                            0x0803c917   Thumb Code    18  wm_matrixssl_compile.o(.text)
    _psTracePtr                              0x0803c929   Thumb Code     4  wm_matrixssl_compile.o(.text)
    http_fwup                                0x0803cbe9   Thumb Code   504  wm_http_fwup.o(.text)
    t_http_fwup                              0x0803cde1   Thumb Code    56  wm_http_fwup.o(.text)
    socket_fwup_recv                         0x0803ced5   Thumb Code   208  wm_socket_fwup.o(.text)
    socket_fwup_err                          0x0803cfa5   Thumb Code    18  wm_socket_fwup.o(.text)
    socket_fwup_poll                         0x0803cfb7   Thumb Code     4  wm_socket_fwup.o(.text)
    socket_fwup_accept                       0x0803cfbb   Thumb Code    70  wm_socket_fwup.o(.text)
    fs_open                                  0x0803d041   Thumb Code   102  fs.o(.text)
    fs_close                                 0x0803d0a7   Thumb Code     4  fs.o(.text)
    fs_read                                  0x0803d0ab   Thumb Code    52  fs.o(.text)
    fs_read_line                             0x0803d0df   Thumb Code   346  fs.o(.text)
    send_error_html                          0x0803d42d   Thumb Code   106  httpd.o(.text)
    send_jump_html                           0x0803d497   Thumb Code    44  httpd.o(.text)
    send_data_to_sys                         0x0803d4c3   Thumb Code    78  httpd.o(.text)
    extract_html_recive                      0x0803d567   Thumb Code   640  httpd.o(.text)
    http_set_cgi_handlers                    0x0803da31   Thumb Code    10  httpd.o(.text)
    httpd_init                               0x0803da3b   Thumb Code    72  httpd.o(.text)
    httpd_deinit                             0x0803da83   Thumb Code    58  httpd.o(.text)
    tls_webserver_init                       0x0803dabd   Thumb Code     4  httpd.o(.text)
    scan_result_cb                           0x0803db55   Thumb Code     8  web.o(.text)
    Web_parse_line                           0x0803db5d   Thumb Code   446  web.o(.text)
    do_cgi_config                            0x0803dd5d   Thumb Code   312  web.o(.text)
    do_cgi_advance                           0x0803de95   Thumb Code    10  web.o(.text)
    do_cgi_firmware                          0x0803de9f   Thumb Code    18  web.o(.text)
    do_cgi_webindex                          0x0803deb1   Thumb Code   448  web.o(.text)
    airkiss_version                          0x0803e7df   Thumb Code     4  airkiss_log.o(.text)
    airkiss_init                             0x0803e7e3   Thumb Code    50  airkiss_log.o(.text)
    airkiss_recv                             0x0803e815   Thumb Code     2  airkiss_log.o(.text)
    airkiss_get_result                       0x0803e817   Thumb Code    84  airkiss_log.o(.text)
    airkiss_change_channel                   0x0803e86b   Thumb Code    46  airkiss_log.o(.text)
    psAesInitKey                             0x0803eaab   Thumb Code   534  aesMatrix.o(.text)
    psAesInit                                0x0803ecc1   Thumb Code    74  aesMatrix.o(.text)
    psAesEncryptBlock                        0x0803ed0b   Thumb Code   612  aesMatrix.o(.text)
    psAesEncrypt                             0x0803ef6f   Thumb Code   126  aesMatrix.o(.text)
    psAesDecryptBlock                        0x0803efed   Thumb Code   612  aesMatrix.o(.text)
    psAesDecrypt                             0x0803f251   Thumb Code   152  aesMatrix.o(.text)
    hostapd_clear_unicast_ps_bit             0x0803f331   Thumb Code    34  ap.o(.text)
    hostapd_clean_ps_multicast               0x0803f353   Thumb Code    62  ap.o(.text)
    hostapd_alloc_bss_data                   0x0803f391   Thumb Code    42  ap.o(.text)
    hostapd_mac_comp_empty                   0x0803f3bb   Thumb Code    18  ap.o(.text)
    hostapd_mgmt_rx                          0x0803f52f   Thumb Code    48  ap.o(.text)
    hostapd_ps_pkt_timer_start               0x0803f55f   Thumb Code    12  ap.o(.text)
    hostapd_ps_pkt_timer_stop                0x0803f56b   Thumb Code    12  ap.o(.text)
    hostapd_event_handle                     0x0803f577   Thumb Code   234  ap.o(.text)
    hostapd_client_event                     0x0803f661   Thumb Code    64  ap.o(.text)
    hostapd_channel_check                    0x0803f6a1   Thumb Code    70  ap.o(.text)
    hostapd_init                             0x0803f6e7   Thumb Code   132  ap.o(.text)
    hostapd_get_mac                          0x0803f76b   Thumb Code    10  ap.o(.text)
    md5                                      0x0803fb69   Thumb Code    40  md5.o(.text)
    md5_vector                               0x0803fb91   Thumb Code    60  md5.o(.text)
    MD5Init                                  0x0803fbcd   Thumb Code    28  md5.o(.text)
    MD5Update                                0x08040297   Thumb Code   126  md5.o(.text)
    MD5Final                                 0x08040315   Thumb Code    98  md5.o(.text)
    hmac_md5_vector                          0x08040377   Thumb Code   208  md5.o(.text)
    hmac_md5                                 0x08040447   Thumb Code    24  md5.o(.text)
    random_get_bytes                         0x0804054b   Thumb Code    74  random.o(.text)
    random_add_randomness                    0x08040595   Thumb Code    62  random.o(.text)
    Arc4Init                                 0x08040645   Thumb Code    72  rc4.o(.text)
    Arc4_skip                                0x0804068d   Thumb Code   148  rc4.o(.text)
    rc4_skip                                 0x08040721   Thumb Code    44  rc4.o(.text)
    rc4                                      0x0804074d   Thumb Code    14  rc4.o(.text)
    hmac_sha1_vector                         0x0804075b   Thumb Code   210  sha1.o(.text)
    hmac_sha1                                0x0804082d   Thumb Code    24  sha1.o(.text)
    sha1_prf                                 0x08040845   Thumb Code   148  sha1.o(.text)
    sha1                                     0x080408d9   Thumb Code    40  sha1_internal.o(.text)
    sha1_vector                              0x08040901   Thumb Code    60  sha1_internal.o(.text)
    SHA1Transform                            0x0804093d   Thumb Code  4386  sha1_internal.o(.text)
    SHA1Init                                 0x08041a5f   Thumb Code    32  sha1_internal.o(.text)
    SHA1Update                               0x08041a7f   Thumb Code   114  sha1_internal.o(.text)
    SHA1Final                                0x08041af1   Thumb Code   138  sha1_internal.o(.text)
    sha256_compress                          0x08041b91   Thumb Code   268  sha256.o(.text)
    sha256_done                              0x08041c9d   Thumb Code   202  sha256.o(.text)
    sha256_process                           0x08041d67   Thumb Code   152  sha256.o(.text)
    wpa_sha256_init                          0x08041dff   Thumb Code    42  sha256.o(.text)
    sha256_vector                            0x08041e29   Thumb Code    70  sha256.o(.text)
    hmac_sha256_vector                       0x08041e6f   Thumb Code   196  sha256.o(.text)
    hmac_sha256                              0x08041f33   Thumb Code    24  sha256.o(.text)
    sha256_prf                               0x08041f4b   Thumb Code   190  sha256.o(.text)
    eloop_cancel_timeout                     0x08042009   Thumb Code    80  wpa_supplicant.o(.text)
    eloop_register_timeout                   0x08042059   Thumb Code   112  wpa_supplicant.o(.text)
    eloop_handle_timeout                     0x080420c9   Thumb Code    70  wpa_supplicant.o(.text)
    wpa_supplicant_state_txt                 0x0804210f   Thumb Code    62  wpa_supplicant.o(.text)
    eloop_timeout                            0x0804214d   Thumb Code    12  wpa_supplicant.o(.text)
    wpa_supplicant_cancel_connect_timeout    0x08042159   Thumb Code     6  wpa_supplicant.o(.text)
    wpa_supplicant_cancel_auth_timeout       0x0804215f   Thumb Code     6  wpa_supplicant.o(.text)
    wpa_clear_keys                           0x080421d7   Thumb Code   126  wpa_supplicant.o(.text)
    wpa_supplicant_disassociate              0x0804228d   Thumb Code    42  wpa_supplicant.o(.text)
    wpa_supplicant_connect_timeout           0x080422b7   Thumb Code    24  wpa_supplicant.o(.text)
    wpa_supplicant_timeout                   0x080422cf   Thumb Code    96  wpa_supplicant.o(.text)
    wpa_supplicant_auth_timer                0x0804232f   Thumb Code    12  wpa_supplicant.o(.text)
    wpa_supplicant_req_auth_timeout          0x0804233b   Thumb Code    24  wpa_supplicant.o(.text)
    wpa_supplicant_connect_timer             0x08042353   Thumb Code    30  wpa_supplicant.o(.text)
    wpa_supplicant_rx_eapol                  0x08042371   Thumb Code   326  wpa_supplicant.o(.text)
    wpa_supplicant_set_state                 0x080424b7   Thumb Code   140  wpa_supplicant.o(.text)
    wpa_supplicant_set_non_wpa_policy        0x08042543   Thumb Code   150  wpa_supplicant.o(.text)
    wpa_set_wep_keys                         0x080425d9   Thumb Code    74  wpa_supplicant.o(.text)
    wpa_supplicant_set_suites                0x08042623   Thumb Code   502  wpa_supplicant.o(.text)
    wpa_supplicant_deauthenticate            0x08042819   Thumb Code    42  wpa_supplicant.o(.text)
    wpa_supplicant_associate                 0x08042843   Thumb Code   396  wpa_supplicant.o(.text)
    wpa_config_set_network_defaults          0x080429cf   Thumb Code    18  wpa_supplicant.o(.text)
    wpa_config_update_psk                    0x080429e1   Thumb Code    30  wpa_supplicant.o(.text)
    wpa_supplicant_cleanup                   0x080429ff   Thumb Code   108  wpa_supplicant.o(.text)
    wpa_supplicant_reload_configs            0x08042a6b   Thumb Code   336  wpa_supplicant.o(.text)
    supplicant_send_event                    0x08042bbb   Thumb Code    38  wpa_supplicant.o(.text)
    supplicant_ps_pkt_timer_expire           0x08042be1   Thumb Code    12  wpa_supplicant.o(.text)
    supplicant_event_rx_mgmt                 0x08042cc3   Thumb Code    78  wpa_supplicant.o(.text)
    supplicant_event_mic_err                 0x08042d11   Thumb Code    66  wpa_supplicant.o(.text)
    supplicant_event_rx_from_unknown         0x08042d53   Thumb Code    52  wpa_supplicant.o(.text)
    supplicant_event_net_up                  0x08042d87   Thumb Code    28  wpa_supplicant.o(.text)
    supplicant_event_net_down                0x08042da3   Thumb Code    32  wpa_supplicant.o(.text)
    supplicant_event_net_fail                0x08042dc3   Thumb Code    32  wpa_supplicant.o(.text)
    supplicant_event_reload_config4softap    0x08042de3   Thumb Code    36  wpa_supplicant.o(.text)
    supplicant_event_disconnect_softap       0x08042e07   Thumb Code    42  wpa_supplicant.o(.text)
    supplicant_event_failed_softap           0x08042e31   Thumb Code    42  wpa_supplicant.o(.text)
    supplicant_event_scan_completed          0x08042e5b   Thumb Code    56  wpa_supplicant.o(.text)
    supplicant_event_disconnect_network      0x08042e93   Thumb Code    42  wpa_supplicant.o(.text)
    supplicant_event_disassoc                0x08042ebd   Thumb Code    90  wpa_supplicant.o(.text)
    supplicant_event_assoc                   0x08042f17   Thumb Code   134  wpa_supplicant.o(.text)
    supplicant_event_rx_eapol                0x08042f9d   Thumb Code    98  wpa_supplicant.o(.text)
    supplicant_event_mac_wdg                 0x08042fff   Thumb Code    42  wpa_supplicant.o(.text)
    supplicant_event_update_stat             0x08043029   Thumb Code    32  wpa_supplicant.o(.text)
    supplicant_event_reload_config           0x08043049   Thumb Code    36  wpa_supplicant.o(.text)
    wpa_supplicant_init_default_configs      0x0804306d   Thumb Code   276  wpa_supplicant.o(.text)
    tls_supplicant_timer_task                0x08043181   Thumb Code   148  wpa_supplicant.o(.text)
    tls_supplicant_task                      0x080432eb   Thumb Code   106  wpa_supplicant.o(.text)
    wpa_supplicant_init                      0x08043355   Thumb Code   390  wpa_supplicant.o(.text)
    wpa_cipher2host                          0x080434db   Thumb Code    76  wpa_supplicant.o(.text)
    wpa_supplicant_get_mac                   0x08043527   Thumb Code     8  wpa_supplicant.o(.text)
    wpa_supplicant_set_mac                   0x0804352f   Thumb Code    14  wpa_supplicant.o(.text)
    tls_get_wpa_data                         0x0804353d   Thumb Code     6  wpa_supplicant.o(.text)
    tls_get_ieee80211_if_data                0x08043631   Thumb Code     8  tls_wl_core.o(.text)
    tls_wl_mac_isr                           0x08043639   Thumb Code   278  tls_wl_core.o(.text)
    tls_wl_data_tx_isr                       0x0804374f   Thumb Code    14  tls_wl_core.o(.text)
    tls_wl_mgmt_tx_isr                       0x0804375d   Thumb Code    88  tls_wl_core.o(.text)
    tls_wl_rx_isr                            0x080437b5   Thumb Code    30  tls_wl_core.o(.text)
    tls_wl_get_isr_count                     0x080437d3   Thumb Code     6  tls_wl_core.o(.text)
    tls_wl_pm_isr                            0x080437d9   Thumb Code    54  tls_wl_core.o(.text)
    standby_timeout                          0x08043927   Thumb Code    76  tls_wl_core.o(.text)
    tls_wl_power_save_awake                  0x08043973   Thumb Code     6  tls_wl_core.o(.text)
    tls_wl_init                              0x08043979   Thumb Code   500  tls_wl_core.o(.text)
    ieee80211_hw_config                      0x08043b6d   Thumb Code    60  tls_wl_core.o(.text)
    tls_wl_mem_reinit                        0x08043ba9   Thumb Code   278  tls_wl_core.o(.text)
    ieee80211_bss_info_change_notify         0x08043cbf   Thumb Code    72  tls_wl_core.o(.text)
    ieee80211_reset_erp_info                 0x08043d07   Thumb Code    12  tls_wl_core.o(.text)
    tls_wl_print_stats                       0x08043d13   Thumb Code     2  tls_wl_core.o(.text)
    ieee80211_disconnect                     0x08043d15   Thumb Code     2  tls_wl_core.o(.text)
    ieee80211_change_iface                   0x08043d17   Thumb Code    80  tls_wl_core.o(.text)
    tls_wl_power_save                        0x08043d67   Thumb Code   144  tls_wl_core.o(.text)
    ieee80211_get_tx_gain                    0x08043df7   Thumb Code     6  tls_wl_core.o(.text)
    tls_get_wif_data                         0x08043dfd   Thumb Code     6  tls_wl_core.o(.text)
    tls_wl_cleanup                           0x08043e03   Thumb Code    40  tls_wl_core.o(.text)
    tls_wl_mem_default                       0x08043e2b   Thumb Code   192  tls_wl_core.o(.text)
    tls_wifi_mem_cfg                         0x08043eeb   Thumb Code   238  tls_wl_core.o(.text)
    tls_wl_hw_enable_mac_int                 0x08043ff5   Thumb Code    10  tls_wl_hw.o(.text)
    tls_wl_hw_disable_mac_int                0x08043fff   Thumb Code    10  tls_wl_hw.o(.text)
    tls_wl_hw_enable_rx                      0x08044009   Thumb Code    32  tls_wl_hw.o(.text)
    tls_wl_hw_disble_rx                      0x08044029   Thumb Code    32  tls_wl_hw.o(.text)
    tls_wl_hw_wake_up                        0x08044049   Thumb Code   120  tls_wl_hw.o(.text)
    tls_wl_hw_sleep                          0x080440c1   Thumb Code   148  tls_wl_hw.o(.text)
    tls_wl_change_chanel                     0x08044155   Thumb Code    50  tls_wl_hw.o(.text)
    tls_wl_change_channel_info               0x08044187   Thumb Code    54  tls_wl_hw.o(.text)
    tls_wl_hw_init                           0x080441bd   Thumb Code   412  tls_wl_hw.o(.text)
    tls_wl_hw_reset_tsf                      0x08044359   Thumb Code    14  tls_wl_hw.o(.text)
    tls_wl_hw_config                         0x08044367   Thumb Code    62  tls_wl_hw.o(.text)
    tls_wl_hw_bss_info_changed               0x080443a5   Thumb Code   364  tls_wl_hw.o(.text)
    tls_sec_find_hw_idx                      0x0804459f   Thumb Code    74  tls_wl_hw.o(.text)
    hed_sec_set_mac_addr                     0x080445e9   Thumb Code    38  tls_wl_hw.o(.text)
    hed_sec_clr_mac_addr                     0x0804460f   Thumb Code    36  tls_wl_hw.o(.text)
    hed_hw_set_multicast_key                 0x08044765   Thumb Code    76  tls_wl_hw.o(.text)
    tls_hw_set_multicast_key                 0x080447b1   Thumb Code    20  tls_wl_hw.o(.text)
    hed_hw_del_multicast_key                 0x080447c5   Thumb Code    42  tls_wl_hw.o(.text)
    tls_hw_del_multicast_key                 0x080447ef   Thumb Code    38  tls_wl_hw.o(.text)
    tls_wl_hw_set_key                        0x08044967   Thumb Code    54  tls_wl_hw.o(.text)
    tls_wl_hw_del_key                        0x0804499d   Thumb Code   342  tls_wl_hw.o(.text)
    tls_wl_if_set_mode                       0x08044cc9   Thumb Code    22  tls_wl_if.o(.text)
    tls_wl_if_clear_mode                     0x08044cdf   Thumb Code    28  tls_wl_if.o(.text)
    tls_wl_if_get_scan_res                   0x08044cfb   Thumb Code   396  tls_wl_if.o(.text)
    tls_wl_if_sta_flush                      0x08044e87   Thumb Code     6  tls_wl_if.o(.text)
    tls_wl_if_sta_deauth                     0x08044e8d   Thumb Code    24  tls_wl_if.o(.text)
    tls_wl_if_sta_disassoc                   0x08044ea5   Thumb Code    24  tls_wl_if.o(.text)
    tls_wl_if_set_tx_queue_params            0x08044ebd   Thumb Code   166  tls_wl_if.o(.text)
    tls_wl_if_set_sta_flags                  0x08044f63   Thumb Code    32  tls_wl_if.o(.text)
    tls_wl_if_send_mlme                      0x08044f83   Thumb Code     6  tls_wl_if.o(.text)
    tls_wl_if_send_channel_switch            0x08044f89   Thumb Code   114  tls_wl_if.o(.text)
    tls_wl_if_switch_channel_width           0x08044ffb   Thumb Code   134  tls_wl_if.o(.text)
    tls_wl_if_channel_info_updata            0x08045081   Thumb Code    54  tls_wl_if.o(.text)
    tls_wl_if_set_bssid                      0x080450b7   Thumb Code    86  tls_wl_if.o(.text)
    tls_wl_if_set_rate_mode                  0x0804510d   Thumb Code    48  tls_wl_if.o(.text)
    tls_wl_if_set_beacon                     0x0804513d   Thumb Code   160  tls_wl_if.o(.text)
    tls_wl_if_del_beacon                     0x080451dd   Thumb Code    40  tls_wl_if.o(.text)
    tls_wl_if_scan                           0x08045205   Thumb Code   102  tls_wl_if.o(.text)
    tls_wl_if_set_ssid                       0x0804526b   Thumb Code   138  tls_wl_if.o(.text)
    tls_wl_if_set_freq                       0x080452f5   Thumb Code    12  tls_wl_if.o(.text)
    tls_wl_if_set_auth                       0x08045301   Thumb Code   370  tls_wl_if.o(.text)
    tls_wl_if_remove_key                     0x08045473   Thumb Code    86  tls_wl_if.o(.text)
    tls_wl_if_add_key                        0x080454c9   Thumb Code   200  tls_wl_if.o(.text)
    tls_wl_if_xmit                           0x08045591   Thumb Code    72  tls_wl_if.o(.text)
    tls_wl_if_send_eapol                     0x080455d9   Thumb Code    14  tls_wl_if.o(.text)
    tls_wl_if_get_rates                      0x080455e7   Thumb Code     4  tls_wl_if.o(.text)
    tls_wl_if_sta_add                        0x080455eb   Thumb Code   226  tls_wl_if.o(.text)
    tls_wl_if_sta_remove                     0x080456cd   Thumb Code    50  tls_wl_if.o(.text)
    tls_wl_if_get_inact_sec                  0x080456ff   Thumb Code    42  tls_wl_if.o(.text)
    tls_wl_if_disconnect                     0x08045729   Thumb Code    82  tls_wl_if.o(.text)
    tls_wl_if_set_max_rate                   0x0804577b   Thumb Code    36  tls_wl_if.o(.text)
    tls_wl_if_get_max_rate                   0x0804579f   Thumb Code    12  tls_wl_if.o(.text)
    tls_wl_if_set_adhoc                      0x080457ab   Thumb Code    10  tls_wl_if.o(.text)
    tls_wl_if_set_ps_mode                    0x080457b5   Thumb Code    10  tls_wl_if.o(.text)
    tls_wl_if_ps                             0x080457bf   Thumb Code    24  tls_wl_if.o(.text)
    tls_wl_if_standby                        0x080457d7   Thumb Code    58  tls_wl_if.o(.text)
    tls_wl_if_sleep                          0x08045811   Thumb Code    58  tls_wl_if.o(.text)
    tls_wl_if_set_errno                      0x0804584b   Thumb Code     6  tls_wl_if.o(.text)
    tls_wl_if_get_errno                      0x08045851   Thumb Code     6  tls_wl_if.o(.text)
    tls_wl_if_perror                         0x08045857   Thumb Code    26  tls_wl_if.o(.text)
    tls_wl_if_get_errinfo                    0x08045871   Thumb Code    18  tls_wl_if.o(.text)
    rf_spi_write                             0x080458b1   Thumb Code    40  tls_wl_rf.o(.text)
    rf_spi_read                              0x080458d9   Thumb Code    52  tls_wl_rf.o(.text)
    rf_spi_init                              0x0804590d   Thumb Code    10  tls_wl_rf.o(.text)
    delay_us                                 0x08045917   Thumb Code    60  tls_wl_rf.o(.text)
    wm_rf_band_switch                        0x08045953   Thumb Code   142  tls_wl_rf.o(.text)
    wm_rf_set_channel                        0x080459e1   Thumb Code   162  tls_wl_rf.o(.text)
    wm_rf_reinit                             0x08045a83   Thumb Code   208  tls_wl_rf.o(.text)
    wm_rf_init                               0x08045b53   Thumb Code   738  tls_wl_rf.o(.text)
    wm_rf_set_channel1                       0x08045e35   Thumb Code   152  tls_wl_rf.o(.text)
    tls_tx_wave_stop                         0x08045ecd   Thumb Code    86  tls_wl_rf.o(.text)
    tls_tx_wave_start                        0x08045f23   Thumb Code   206  tls_wl_rf.o(.text)
    tls_rx_data_from_adc                     0x08045ff1   Thumb Code   214  tls_wl_rf.o(.text)
    tls_wl_litepoint_test                    0x0804615d   Thumb Code    48  tls_wl_tx.o(.text)
    tls_wl_tx_mem_init                       0x0804618d   Thumb Code    40  tls_wl_tx.o(.text)
    tls_wl_tx_init                           0x080461b5   Thumb Code   270  tls_wl_tx.o(.text)
    ieee80211_set_qos_hdr                    0x080462c3   Thumb Code    16  tls_wl_tx.o(.text)
    ieee80211_tx_encrypt_add_iv              0x08046377   Thumb Code   272  tls_wl_tx.o(.text)
    ieee80211_tx_rate_ctrl                   0x08046487   Thumb Code   500  tls_wl_tx.o(.text)
    ieee80211_tx_michael_mic_add             0x0804667b   Thumb Code   304  tls_wl_tx.o(.text)
    tls_wl_if_tx                             0x08046ff9   Thumb Code   186  tls_wl_tx.o(.text)
    tls_wifi_buffer_acquire                  0x080470b3   Thumb Code   134  tls_wl_tx.o(.text)
    tls_wifi_buffer_release                  0x08047139   Thumb Code   124  tls_wl_tx.o(.text)
    ieee80211_send_data                      0x080471b5   Thumb Code   378  tls_wl_tx.o(.text)
    tls_wifi_data_recv_cb_register           0x080473f9   Thumb Code     6  wm_wifi_api.o(.text)
    tls_wifi_data_ext_recv_cb_register       0x080473ff   Thumb Code     6  wm_wifi_api.o(.text)
    tls_wifi_status_change_cb_register       0x08047405   Thumb Code    10  wm_wifi_api.o(.text)
    tls_ethernet_data_rx_callback            0x0804740f   Thumb Code    16  wm_wifi_api.o(.text)
    tls_ethernet_ip_rx_callback              0x0804741f   Thumb Code    16  wm_wifi_api.o(.text)
    tls_wifi_scan_result_cb_register         0x0804742f   Thumb Code    10  wm_wifi_api.o(.text)
    tls_wifi_scan                            0x08047439   Thumb Code    76  wm_wifi_api.o(.text)
    tls_wifi_passive_scan                    0x08047485   Thumb Code    74  wm_wifi_api.o(.text)
    tls_wifi_get_scan_rslt                   0x080474cf   Thumb Code    28  wm_wifi_api.o(.text)
    tls_wifi_set_listen_mode                 0x080474eb   Thumb Code   128  wm_wifi_api.o(.text)
    tls_wifi_get_listen_mode                 0x0804756b   Thumb Code     6  wm_wifi_api.o(.text)
    tls_wifi_set_special_mode                0x08047571   Thumb Code    66  wm_wifi_api.o(.text)
    tls_wifi_get_special_mode                0x080475b3   Thumb Code     6  wm_wifi_api.o(.text)
    tls_filter_mcast_mac                     0x080475b9   Thumb Code   182  wm_wifi_api.o(.text)
    tls_wifi_set_bcast_mac_filter            0x0804766f   Thumb Code   334  wm_wifi_api.o(.text)
    tls_wifi_restore_bcast_mac_filter        0x080477bd   Thumb Code   104  wm_wifi_api.o(.text)
    tls_wifi_change_chanel                   0x08047825   Thumb Code     4  wm_wifi_api.o(.text)
    wpa_update_ssid                          0x08047829   Thumb Code   188  wm_wifi_api.o(.text)
    wpa_update_ssid2                         0x080478e5   Thumb Code   116  wm_wifi_api.o(.text)
    wpa_update_encrypt_cfg2                  0x08047959   Thumb Code   152  wm_wifi_api.o(.text)
    wpa_update_encrypt2                      0x080479f1   Thumb Code    82  wm_wifi_api.o(.text)
    wpa_update_key_cfg2                      0x08047a43   Thumb Code   424  wm_wifi_api.o(.text)
    wpa_update_key_4_ap2                     0x08047beb   Thumb Code   230  wm_wifi_api.o(.text)
    wpa_update_ip_info2                      0x08047cd1   Thumb Code    16  wm_wifi_api.o(.text)
    wpa_update_dnsname                       0x08047ce1   Thumb Code    24  wm_wifi_api.o(.text)
    wpa_update_bssid                         0x08047cf9   Thumb Code    52  wm_wifi_api.o(.text)
    wpa_update_mode                          0x08047d55   Thumb Code    10  wm_wifi_api.o(.text)
    wpa_update_key                           0x08047d5f   Thumb Code   132  wm_wifi_api.o(.text)
    wpa_update_encrypt_cfg                   0x08047de3   Thumb Code   158  wm_wifi_api.o(.text)
    wpa_update_encrypt                       0x08047e81   Thumb Code    80  wm_wifi_api.o(.text)
    wpa_update_key_cfg                       0x08047ed1   Thumb Code   404  wm_wifi_api.o(.text)
    wpa_update_key_4_ap                      0x08048065   Thumb Code   172  wm_wifi_api.o(.text)
    wpa_update_ip_info                       0x08048111   Thumb Code    68  wm_wifi_api.o(.text)
    tls_wifi_connect                         0x08048155   Thumb Code   122  wm_wifi_api.o(.text)
    tls_wifi_connect_by_bssid                0x080481cf   Thumb Code    90  wm_wifi_api.o(.text)
    tls_wifi_connect_by_ssid_bssid           0x08048229   Thumb Code   222  wm_wifi_api.o(.text)
    tls_wifi_get_state                       0x08048307   Thumb Code    42  wm_wifi_api.o(.text)
    tls_wifi_auto_connect_flag               0x08048331   Thumb Code    58  wm_wifi_api.o(.text)
    tls_wifi_disconnect                      0x0804836b   Thumb Code    82  wm_wifi_api.o(.text)
    tls_wifi_softap_create                   0x080483bd   Thumb Code   242  wm_wifi_api.o(.text)
    tls_wifi_softap_destroy                  0x080484af   Thumb Code     8  wm_wifi_api.o(.text)
    tls_wifi_get_authed_sta_info             0x080484b7   Thumb Code     4  wm_wifi_api.o(.text)
    tls_wifi_softap_get_state                0x080484bb   Thumb Code    16  wm_wifi_api.o(.text)
    tls_wifi_softap_client_event_register    0x080484cb   Thumb Code    10  wm_wifi_api.o(.text)
    tls_wifi_ibss_create                     0x080484d5   Thumb Code     4  wm_wifi_api.o(.text)
    tls_wifi_get_current_bss                 0x080484d9   Thumb Code   204  wm_wifi_api.o(.text)
    tls_wifi_set_psflag                      0x080485a5   Thumb Code    24  wm_wifi_api.o(.text)
    tls_wifi_get_psflag                      0x080485bd   Thumb Code    14  wm_wifi_api.o(.text)
    tls_wifi_send_oneshotdata                0x080485cb   Thumb Code    30  wm_wifi_api.o(.text)
    tls_wifi_get_tx_gain_max                 0x080485e9   Thumb Code    12  wm_wifi_api.o(.text)
    tls_wifi_send_mgmt                       0x080485f5   Thumb Code   122  wm_wifi_api.o(.text)
    tls_wifi_send_data                       0x0804866f   Thumb Code   160  wm_wifi_api.o(.text)
    tls_wifi_get_errno                       0x0804870f   Thumb Code     4  wm_wifi_api.o(.text)
    tls_wifi_perror                          0x08048713   Thumb Code     4  wm_wifi_api.o(.text)
    tls_wifi_get_errinfo                     0x08048717   Thumb Code     4  wm_wifi_api.o(.text)
    decrypt_data                             0x080487e1   Thumb Code    94  wm_wifi_oneshot_api.o(.text)
    decode_data                              0x0804883f   Thumb Code   266  wm_wifi_oneshot_api.o(.text)
    tls_wifi_oneshotinfo_resolve_probereq    0x08048949   Thumb Code   612  wm_wifi_oneshot_api.o(.text)
    tls_wifi_get_oneshot_chan                0x08048bad   Thumb Code     6  wm_wifi_oneshot_api.o(.text)
    tls_wifi_oneshot_resolve_info            0x08048bb3   Thumb Code   340  wm_wifi_oneshot_api.o(.text)
    tls_wifi_pbreq_encry_data                0x08048d07   Thumb Code   232  wm_wifi_oneshot_api.o(.text)
    tls_wifi_pbreq_recv                      0x08048def   Thumb Code    88  wm_wifi_oneshot_api.o(.text)
    tls_wifi_decode_new_oneshot_data         0x08048e47   Thumb Code   326  wm_wifi_oneshot_api.o(.text)
    tls_litepoint_start                      0x08048f8d   Thumb Code    52  litepoint.o(.text)
    tls_tx_send_litepoint                    0x08048fc1   Thumb Code   398  litepoint.o(.text)
    tls_set_test_channel                     0x0804914f   Thumb Code    40  litepoint.o(.text)
    tls_tx_litepoint_param_update            0x08049177   Thumb Code    26  litepoint.o(.text)
    tls_tx_litepoint_test_start              0x08049191   Thumb Code   558  litepoint.o(.text)
    tls_txrx_litepoint_test_stop             0x080493bf   Thumb Code    72  litepoint.o(.text)
    tls_txrx_litepoint_clear_data            0x08049407   Thumb Code    38  litepoint.o(.text)
    tls_tx_litepoint_test_get_totalsnd       0x0804942d   Thumb Code    12  litepoint.o(.text)
    tls_rx_litepoint_test_start              0x08049439   Thumb Code    38  litepoint.o(.text)
    tls_rx_litepoint_test_result             0x0804945f   Thumb Code    40  litepoint.o(.text)
    tls_rx_litepoint_pwr_result              0x08049487   Thumb Code    40  litepoint.o(.text)
    tls_rx_litepoint_test_rate               0x080494af   Thumb Code    12  litepoint.o(.text)
    mp_reverse                               0x080494cd   Thumb Code    24  libtommath.o(.text)
    mp_clamp                                 0x080494e5   Thumb Code    44  libtommath.o(.text)
    mp_grow                                  0x08049511   Thumb Code    78  libtommath.o(.text)
    wpa_mp_init                              0x08049695   Thumb Code    48  libtommath.o(.text)
    mp_clear                                 0x080496c5   Thumb Code    48  libtommath.o(.text)
    mp_cmp_mag                               0x080496f5   Thumb Code    82  libtommath.o(.text)
    mp_add                                   0x08049747   Thumb Code    62  libtommath.o(.text)
    mp_sub                                   0x08049785   Thumb Code    74  libtommath.o(.text)
    mp_exch                                  0x080497cf   Thumb Code    16  libtommath.o(.text)
    mp_init_size                             0x080497df   Thumb Code    66  libtommath.o(.text)
    mp_clear_multi                           0x08049a03   Thumb Code    28  libtommath.o(.text)
    mp_zero                                  0x08049a1f   Thumb Code    28  libtommath.o(.text)
    mp_rshd                                  0x08049a3b   Thumb Code    70  libtommath.o(.text)
    mp_copy                                  0x08049a81   Thumb Code    84  libtommath.o(.text)
    mp_mod_2d                                0x08049ad5   Thumb Code   118  libtommath.o(.text)
    mp_div_2d                                0x08049b4b   Thumb Code   198  libtommath.o(.text)
    mp_cmp                                   0x08049c11   Thumb Code    42  libtommath.o(.text)
    mp_lshd                                  0x08049c3b   Thumb Code    98  libtommath.o(.text)
    mp_mul_2d                                0x08049c9d   Thumb Code   152  libtommath.o(.text)
    mp_abs                                   0x08049d35   Thumb Code    22  libtommath.o(.text)
    mp_count_bits                            0x08049d4b   Thumb Code    44  libtommath.o(.text)
    mp_set                                   0x08049d77   Thumb Code    26  libtommath.o(.text)
    mp_init_multi                            0x08049d91   Thumb Code    62  libtommath.o(.text)
    mp_div                                   0x08049dcf   Thumb Code   326  libtommath.o(.text)
    mp_mod                                   0x08049f15   Thumb Code    78  libtommath.o(.text)
    mp_mulmod                                0x08049f63   Thumb Code    66  libtommath.o(.text)
    mp_sqr                                   0x0804a06f   Thumb Code    14  libtommath.o(.text)
    mp_reduce_2k_l                           0x0804a07d   Thumb Code   106  libtommath.o(.text)
    mp_2expt                                 0x0804a0e7   Thumb Code    52  libtommath.o(.text)
    mp_reduce_2k_setup_l                     0x0804a11b   Thumb Code    56  libtommath.o(.text)
    mp_cmp_d                                 0x0804a153   Thumb Code    44  libtommath.o(.text)
    mp_init_copy                             0x0804a17f   Thumb Code    26  libtommath.o(.text)
    mp_reduce                                0x0804a199   Thumb Code   204  libtommath.o(.text)
    mp_reduce_setup                          0x0804a265   Thumb Code    42  libtommath.o(.text)
    mp_exptmod                               0x0804a535   Thumb Code    30  libtommath.o(.text)
    mp_unsigned_bin_size                     0x0804a553   Thumb Code    24  libtommath.o(.text)
    mp_init_for_read_unsigned_bin            0x0804a56b   Thumb Code    16  libtommath.o(.text)
    mp_read_unsigned_bin                     0x0804a57b   Thumb Code    86  libtommath.o(.text)
    mp_to_unsigned_bin_nr                    0x0804a5d1   Thumb Code    72  libtommath.o(.text)
    mp_to_unsigned_bin                       0x0804a619   Thumb Code    80  libtommath.o(.text)
    mp_karatsuba_sqr                         0x0804a669   Thumb Code   332  libtommath.o(.text)
    mp_karatsuba_mul                         0x0804a7b5   Thumb Code   444  libtommath.o(.text)
    wpa_bss_remove                           0x0804aa19   Thumb Code    18  bss.o(.text)
    wpa_bss_copy_res                         0x0804aa2b   Thumb Code    46  bss.o(.text)
    wpa_bss_add                              0x0804aa59   Thumb Code   110  bss.o(.text)
    wpa_bss_deinit                           0x0804aac7   Thumb Code    24  bss.o(.text)
    wpa_bss_get_ie                           0x0804aadf   Thumb Code    40  bss.o(.text)
    wpa_bss_get_vendor_ie                    0x0804ab07   Thumb Code    62  bss.o(.text)
    wpa_bss_get_vendor_ie_multi              0x0804ab45   Thumb Code   126  bss.o(.text)
    wpa_bss_get_max_rate                     0x0804abc3   Thumb Code    84  bss.o(.text)
    wpa_bss_get_bit_rates                    0x0804ac17   Thumb Code   116  bss.o(.text)
    wpa_supplicant_connect                   0x0804ac8d   Thumb Code    72  events.o(.text)
    wpa_supplicant_event_assoc               0x0804ade9   Thumb Code   228  events.o(.text)
    wpa_supplicant_update_key_wep            0x0804aecd   Thumb Code   388  events.o(.text)
    wpa_supplicant_update_key_wpa            0x0804b0c9   Thumb Code   326  events.o(.text)
    wpa_multi_bss_updte_cfg                  0x0804b717   Thumb Code   130  events.o(.text)
    wpa_multi_bss_connect                    0x0804b799   Thumb Code   106  events.o(.text)
    wpa_del_multi_bss                        0x0804b803   Thumb Code   108  events.o(.text)
    wpa_destroy_multi_bss                    0x0804b86f   Thumb Code    46  events.o(.text)
    wpa_supplicant_mark_disassoc             0x0804b955   Thumb Code    48  events.o(.text)
    wpa_supplicant_event_disassoc            0x0804b985   Thumb Code   102  events.o(.text)
    wpa_supplicant_event_scan_results        0x0804b9eb   Thumb Code   148  events.o(.text)
    hostapd_setup_wpa_psk                    0x0804bc29   Thumb Code   120  hostapd.o(.text)
    hostapd_interface_free                   0x0804bd6b   Thumb Code    26  hostapd.o(.text)
    hostapd_rate_found                       0x0804bd85   Thumb Code    30  hostapd.o(.text)
    hostapd_prepare_rates                    0x0804bda3   Thumb Code   168  hostapd.o(.text)
    hostapd_setup_interface                  0x0804be4b   Thumb Code   138  hostapd.o(.text)
    hostapd_interface_deinit                 0x0804bed5   Thumb Code    26  hostapd.o(.text)
    hostapd_new_assoc_sta                    0x0804beef   Thumb Code    48  hostapd.o(.text)
    ieee802_1x_set_sta_authorized            0x0804bf4d   Thumb Code    50  ieee802_1x.o(.text)
    ieee802_1x_receive                       0x0804bf7f   Thumb Code    98  ieee802_1x.o(.text)
    hostapd_notif_assoc                      0x0804bfe1   Thumb Code   290  ieee802_11.o(.text)
    hostapd_eid_supp_rates                   0x0804c103   Thumb Code   120  ieee802_11.o(.text)
    hostapd_eid_ext_supp_rates               0x0804c17b   Thumb Code   120  ieee802_11.o(.text)
    hostapd_own_capab_info                   0x0804c1f3   Thumb Code    40  ieee802_11.o(.text)
    ieee802_11_print_ssid                    0x0804c21b   Thumb Code    42  ieee802_11.o(.text)
    ieee802_11_mgmt                          0x0804c743   Thumb Code   264  ieee802_11.o(.text)
    ieee802_11_rx_from_unknown               0x0804c84b   Thumb Code    66  ieee802_11.o(.text)
    hostapd_parse_elems                      0x0804c9ef   Thumb Code   300  ieee802_11_common.o(.text)
    ieee802_11_ie_count                      0x0804cb1b   Thumb Code    30  ieee802_11_common.o(.text)
    ieee802_11_vendor_ie_concat              0x0804cb39   Thumb Code   166  ieee802_11_common.o(.text)
    get_hdr_bssid                            0x0804cbdf   Thumb Code    74  ieee802_11_common.o(.text)
    os_zalloc                                0x0804cc91   Thumb Code    22  os_internal.o(.text)
    os_realloc                               0x0804cca7   Thumb Code    48  os_internal.o(.text)
    os_strdup                                0x0804ccd7   Thumb Code    38  os_internal.o(.text)
    wpa_supplicant_req_scan                  0x0804ccfd   Thumb Code    24  scan.o(.text)
    wpa_supplicant_scan                      0x0804cd15   Thumb Code   174  scan.o(.text)
    wpa_supplicant_cancel_scan               0x0804cdc3   Thumb Code     6  scan.o(.text)
    wpa_supplicant_scan_timer                0x0804cdc9   Thumb Code    12  scan.o(.text)
    wpa_scan_get_ie                          0x0804cdd5   Thumb Code    40  scan.o(.text)
    wpa_scan_get_vendor_ie                   0x0804cdfd   Thumb Code    62  scan.o(.text)
    wpa_scan_get_vendor_ie_multi             0x0804ce3b   Thumb Code   126  scan.o(.text)
    wpa_scan_results_free                    0x0804ceb9   Thumb Code    44  scan.o(.text)
    pbkdf2_sha1                              0x0804cee9   Thumb Code    86  sha1-pbkdf2.o(.text)
    ap_get_authed_sta                        0x0804d039   Thumb Code    98  hostapd_sta_info.o(.text)
    ap_for_each_sta                          0x0804d09b   Thumb Code    38  hostapd_sta_info.o(.text)
    ap_get_sta                               0x0804d0c1   Thumb Code    38  hostapd_sta_info.o(.text)
    ap_sta_hash_add                          0x0804d0e7   Thumb Code    14  hostapd_sta_info.o(.text)
    ap_sta_set_authorized                    0x0804d10f   Thumb Code    48  hostapd_sta_info.o(.text)
    ap_handle_timer                          0x0804d13f   Thumb Code   324  hostapd_sta_info.o(.text)
    ap_free_sta                              0x0804d283   Thumb Code   434  hostapd_sta_info.o(.text)
    hostapd_free_stas                        0x0804d435   Thumb Code    54  hostapd_sta_info.o(.text)
    ap_sta_add                               0x0804d46b   Thumb Code   112  hostapd_sta_info.o(.text)
    ap_sta_disconnect                        0x0804d4db   Thumb Code   146  hostapd_sta_info.o(.text)
    ieee80211_tkip_countermeasures_deinit    0x0804d597   Thumb Code    10  tkip_countermeasures.o(.text)
    michael_mic_failure                      0x0804d5a1   Thumb Code    92  tkip_countermeasures.o(.text)
    wpa_eapol_key_send                       0x0804d67d   Thumb Code    84  wpa.o(.text)
    wpa_sm_key_request                       0x0804d6d1   Thumb Code   200  wpa.o(.text)
    wpa_supplicant_send_2_of_4               0x0804d799   Thumb Code   196  wpa.o(.text)
    wpa_supplicant_send_4_of_4               0x0804db27   Thumb Code   188  wpa.o(.text)
    wpa_sm_rx_eapol                          0x0804dec7   Thumb Code   306  wpa.o(.text)
    wpa_sm_set_assoc_wpa_ie                  0x0804dff9   Thumb Code    74  wpa.o(.text)
    wpa_sm_set_config                        0x0804e043   Thumb Code    94  wpa.o(.text)
    wpa_sm_init                              0x0804e0a1   Thumb Code    62  wpa.o(.text)
    wpa_sm_deinit                            0x0804e0df   Thumb Code    68  wpa.o(.text)
    wpa_sm_parse_own_wpa_ie                  0x0804e123   Thumb Code    40  wpa.o(.text)
    wpa_sm_set_pmk                           0x0804e14b   Thumb Code    12  wpa.o(.text)
    wpa_sm_set_param                         0x0804e157   Thumb Code    94  wpa.o(.text)
    wpa_sm_set_own_addr                      0x0804e1b5   Thumb Code    18  wpa.o(.text)
    wpa_sm_set_ap_wpa_ie                     0x0804e1c7   Thumb Code    74  wpa.o(.text)
    wpa_sm_set_ap_rsn_ie                     0x0804e211   Thumb Code    74  wpa.o(.text)
    wpa_sm_set_assoc_wpa_ie_default          0x0804e25b   Thumb Code    66  wpa.o(.text)
    wpa_sm_notify_assoc                      0x0804e29d   Thumb Code    36  wpa.o(.text)
    wpa_sm_notify_disassoc                   0x0804e2c1   Thumb Code    30  wpa.o(.text)
    wpa_drv_scan                             0x0804e6c7   Thumb Code   102  wpa_driver.o(.text)
    wpa_drv_set_freq                         0x0804e72d   Thumb Code    18  wpa_driver.o(.text)
    wpa_drv_set_auth_alg                     0x0804e73f   Thumb Code    40  wpa_driver.o(.text)
    wpa_drv_set_auth_params                  0x0804e767   Thumb Code    28  wpa_driver.o(.text)
    wpa_drv_set_mode                         0x0804e783   Thumb Code     6  wpa_driver.o(.text)
    wpa_drv_set_bssid                        0x0804e789   Thumb Code    48  wpa_driver.o(.text)
    wpa_drv_deinit_ap                        0x0804e7b9   Thumb Code    48  wpa_driver.o(.text)
    wpa_drv_cleanup                          0x0804e7e9   Thumb Code    26  wpa_driver.o(.text)
    wpa_drv_set_ssid                         0x0804e803   Thumb Code    88  wpa_driver.o(.text)
    wpa_drv_associate                        0x0804e85b   Thumb Code   272  wpa_driver.o(.text)
    wpa_drv_deauthenticate                   0x0804e96b   Thumb Code    30  wpa_driver.o(.text)
    wpa_drv_send_eapol                       0x0804e989   Thumb Code   104  wpa_driver.o(.text)
    wpa_drv_disassociate                     0x0804e9f1   Thumb Code     6  wpa_driver.o(.text)
    wpa_drv_set_key                          0x0804e9f7   Thumb Code   192  wpa_driver.o(.text)
    wpa_drv_remove_key                       0x0804eab7   Thumb Code    64  wpa_driver.o(.text)
    wpa_parse_wpa_ie                         0x0804eb41   Thumb Code    16  wpa_ie.o(.text)
    wpa_gen_wpa_ie                           0x0804ed6d   Thumb Code    50  wpa_ie.o(.text)
    wpa_supplicant_parse_ies                 0x0804ed9f   Thumb Code   236  wpa_ie.o(.text)
    wpabuf_put                               0x0804ef35   Thumb Code    20  wpabuf.o(.text)
    wpabuf_alloc                             0x0804ef49   Thumb Code    18  wpabuf.o(.text)
    wpabuf_resize                            0x0804ef5b   Thumb Code    80  wpabuf.o(.text)
    wpabuf_dup                               0x0804efab   Thumb Code    36  wpabuf.o(.text)
    wpabuf_free                              0x0804efcf   Thumb Code    26  wpabuf.o(.text)
    wpabuf_alloc_copy                        0x0804efe9   Thumb Code    28  wpabuf.o(.text)
    wpabuf_zeropad                           0x0804f005   Thumb Code    72  wpabuf.o(.text)
    wpa_supplicant_init_wpa                  0x0804f077   Thumb Code    36  wpas_glue.o(.text)
    wpa_supplicant_rsn_supp_set_config       0x0804f09b   Thumb Code     2  wpas_glue.o(.text)
    wpa_sm_alloc_eapol                       0x0804f09d   Thumb Code    72  wpas_glue.o(.text)
    wpa_sm_deauthenticate                    0x0804f0e5   Thumb Code    42  wpas_glue.o(.text)
    wpa_sm_ether_send                        0x0804f10f   Thumb Code    24  wpas_glue.o(.text)
    wpa_sm_set_key                           0x0804f127   Thumb Code    70  wpas_glue.o(.text)
    wpa_sm_disassociate                      0x0804f16d   Thumb Code    42  wpas_glue.o(.text)
    wpa_sm_cancel_auth_timeout               0x0804f197   Thumb Code    10  wpas_glue.o(.text)
    wpa_supplicant_get_state                 0x0804f1a1   Thumb Code     6  wpas_glue.o(.text)
    wpa_supplicant_init_eapol                0x0804f1a7   Thumb Code     4  wpas_glue.o(.text)
    ieee80211_bss_put                        0x0804f1c3   Thumb Code     8  tls_wl_bss.o(.text)
    ieee80211_bss_del                        0x0804f1cb   Thumb Code   130  tls_wl_bss.o(.text)
    ieee80211_bss_flush                      0x0804f24d   Thumb Code    54  tls_wl_bss.o(.text)
    ieee80211_bss_flush_by_age               0x0804f283   Thumb Code    88  tls_wl_bss.o(.text)
    ieee80211_bss_timeout                    0x0804f2db   Thumb Code     8  tls_wl_bss.o(.text)
    ieee80211_bss_list_init                  0x0804f2e3   Thumb Code    74  tls_wl_bss.o(.text)
    ieee80211_bss_add                        0x0804f32d   Thumb Code    84  tls_wl_bss.o(.text)
    ieee80211_bss_get                        0x0804f381   Thumb Code    70  tls_wl_bss.o(.text)
    ieee80211_bss_info_update                0x0804f3c7   Thumb Code   970  tls_wl_bss.o(.text)
    find_ie                                  0x0804f791   Thumb Code    46  tls_wl_bss.o(.text)
    ieee80211_get_match_bss                  0x0804f7bf   Thumb Code    94  tls_wl_bss.o(.text)
    tls_wl_bss_mgmt_task                     0x0804f81d   Thumb Code    32  tls_wl_bss.o(.text)
    mic_block                                0x0804f895   Thumb Code    60  tls_wl_key.o(.text)
    ieee80211_wep_init                       0x0804f8d1   Thumb Code    30  tls_wl_key.o(.text)
    ieee80211_key_alloc                      0x0804f8ef   Thumb Code   216  tls_wl_key.o(.text)
    ieee80211_key_link                       0x0804fa4f   Thumb Code   106  tls_wl_key.o(.text)
    ieee80211_key_free                       0x0804fab9   Thumb Code    42  tls_wl_key.o(.text)
    ieee80211_add_key                        0x0804fae3   Thumb Code    52  tls_wl_key.o(.text)
    ieee80211_del_key                        0x0804fb17   Thumb Code    80  tls_wl_key.o(.text)
    ieee80211_free_keys                      0x0804fb67   Thumb Code    50  tls_wl_key.o(.text)
    tls_wl_get_mgmt_txbuf                    0x0804fbd5   Thumb Code    70  tls_wl_mgmt.o(.text)
    ieee80211_send_probe_req                 0x0804fce3   Thumb Code   452  tls_wl_mgmt.o(.text)
    ieee80211_send_auth                      0x0804fea7   Thumb Code   346  tls_wl_mgmt.o(.text)
    ieee80211_bss_get_ie                     0x08050001   Thumb Code    60  tls_wl_mgmt.o(.text)
    ieee80211_send_assoc                     0x0805003d   Thumb Code   880  tls_wl_mgmt.o(.text)
    ieee80211_send_probe_rsp                 0x080503ad   Thumb Code   138  tls_wl_mgmt.o(.text)
    ieee80211_send_deauth_disassoc           0x08050437   Thumb Code   242  tls_wl_mgmt.o(.text)
    ieee80211_send_nullfunc                  0x08050529   Thumb Code   212  tls_wl_mgmt.o(.text)
    ieee80211_send_pspoll                    0x080505fd   Thumb Code   150  tls_wl_mgmt.o(.text)
    ieee80211_send_mgmt                      0x08050693   Thumb Code   176  tls_wl_mgmt.o(.text)
    ieee80211_send_mgmt_by_rate              0x08050743   Thumb Code   152  tls_wl_mgmt.o(.text)
    ieee80211_set_disassoc                   0x08050aff   Thumb Code   142  tls_wl_mlme.o(.text)
    ieee80211_ht_cap_ie_to_sta_ht_cap        0x08050b8d   Thumb Code   112  tls_wl_mlme.o(.text)
    ieee80211_sta_rx_notify                  0x08050ef3   Thumb Code    14  tls_wl_mlme.o(.text)
    ieee80211_rx_mgmt_beacon_proc_dtim       0x08050f4f   Thumb Code   352  tls_wl_mlme.o(.text)
    disable_rd                               0x08051195   Thumb Code    42  tls_wl_mlme.o(.text)
    ieee80211_send_delba                     0x080511bf   Thumb Code   266  tls_wl_mlme.o(.text)
    __ieee80211_stop_rx_ba_session           0x080512c9   Thumb Code    44  tls_wl_mlme.o(.text)
    ieee80211_stop_tx_ba_cb                  0x080512f5   Thumb Code    38  tls_wl_mlme.o(.text)
    ___ieee80211_stop_tx_ba_session          0x0805131b   Thumb Code    50  tls_wl_mlme.o(.text)
    __ieee80211_stop_tx_ba_session           0x0805134d   Thumb Code    18  tls_wl_mlme.o(.text)
    ieee80211_sta_tear_down_BA_sessions      0x0805135f   Thumb Code    36  tls_wl_mlme.o(.text)
    ieee80211_enable_ht                      0x08051383   Thumb Code   206  tls_wl_mlme.o(.text)
    ieee80211_stop_tx_ba_session             0x08051599   Thumb Code    34  tls_wl_mlme.o(.text)
    ieee80211_process_addba_request          0x080515bb   Thumb Code    38  tls_wl_mlme.o(.text)
    ieee80211_process_addba_resp             0x080515e1   Thumb Code     2  tls_wl_mlme.o(.text)
    ieee80211_process_delba                  0x080515e3   Thumb Code    34  tls_wl_mlme.o(.text)
    ieee80211_process_chanswitch             0x08051605   Thumb Code    48  tls_wl_mlme.o(.text)
    ieee80211_sta_rx_mgmt                    0x080519a5   Thumb Code    76  tls_wl_mlme.o(.text)
    ieee80211_sta_req_auth                   0x080519f1   Thumb Code    68  tls_wl_mlme.o(.text)
    ieee80211_sta_commit                     0x08051a35   Thumb Code    50  tls_wl_mlme.o(.text)
    ieee80211_sta_set_ssid                   0x08051a67   Thumb Code    80  tls_wl_mlme.o(.text)
    ieee80211_sta_config_auth                0x08051ab7   Thumb Code   268  tls_wl_mlme.o(.text)
    ieee80211_sta_timer                      0x08051bc3   Thumb Code    26  tls_wl_mlme.o(.text)
    tls_wl_mlme_init                         0x08051bdd   Thumb Code    46  tls_wl_mlme.o(.text)
    tls_wl_mlme_task                         0x08051c0b   Thumb Code   204  tls_wl_mlme.o(.text)
    tls_wl_mlme_cleanup                      0x08051cd7   Thumb Code    28  tls_wl_mlme.o(.text)
    tls_wl_delay                             0x08052059   Thumb Code    20  tls_wl_phy.o(.text)
    tls_wl_bbp_init                          0x0805206d   Thumb Code    98  tls_wl_phy.o(.text)
    tls_wl_rc_get_max_rate_code              0x080520e1   Thumb Code   282  tls_wl_rc.o(.text)
    rate_supported                           0x080521fb   Thumb Code    18  tls_wl_rc.o(.text)
    hw_set_tx_rate_and_power                 0x0805220d   Thumb Code    56  tls_wl_rc.o(.text)
    hw_set_tx_rate_and_power2                0x08052245   Thumb Code    14  tls_wl_rc.o(.text)
    rc_get_rate_table                        0x08052253   Thumb Code     4  tls_wl_rc.o(.text)
    ieee80211_rate_control_init              0x080524dd   Thumb Code   250  tls_wl_rc.o(.text)
    rate_control_send_low                    0x080525d7   Thumb Code   116  tls_wl_rc.o(.text)
    ieee80211_set_rate                       0x08052a3f   Thumb Code   162  tls_wl_rc.o(.text)
    tls_wl_rc_init                           0x08052ae1   Thumb Code   132  tls_wl_rc.o(.text)
    tls_wl_rx_mem_init                       0x08052c31   Thumb Code    42  tls_wl_rx.o(.text)
    tls_wl_rx_init                           0x08052c5b   Thumb Code   172  tls_wl_rx.o(.text)
    tls_wl_free_rxbuf                        0x08052d07   Thumb Code   100  tls_wl_rx.o(.text)
    ieee80211_rx_defragment                  0x08052d6b   Thumb Code   226  tls_wl_rx.o(.text)
    ieee80211_deliver_frame                  0x08053135   Thumb Code   300  tls_wl_rx.o(.text)
    tls_wl_rx_task                           0x08053a81   Thumb Code   610  tls_wl_rx.o(.text)
    alloc_scan_req                           0x08053fe9   Thumb Code   348  tls_wl_scan.o(.text)
    ieee80211_start_scan                     0x08054145   Thumb Code    66  tls_wl_scan.o(.text)
    ieee80211_scan_completed                 0x08054187   Thumb Code    96  tls_wl_scan.o(.text)
    ieee80211_request_scan                   0x080541e7   Thumb Code    62  tls_wl_scan.o(.text)
    tls_wl_scan_task                         0x08054225   Thumb Code   228  tls_wl_scan.o(.text)
    sta_info_get                             0x0805430d   Thumb Code    76  tls_wl_sta_info.o(.text)
    sta_info_put                             0x0805436d   Thumb Code     8  tls_wl_sta_info.o(.text)
    sta_info_add_with_mode                   0x08054375   Thumb Code   162  tls_wl_sta_info.o(.text)
    sta_info_free                            0x08054417   Thumb Code   208  tls_wl_sta_info.o(.text)
    sta_info_flush                           0x080544e7   Thumb Code    62  tls_wl_sta_info.o(.text)
    sta_info_init                            0x08054525   Thumb Code    30  tls_wl_sta_info.o(.text)
    kref_set                                 0x08054549   Thumb Code     4  tls_wl_util.o(.text)
    kref_init                                0x0805454d   Thumb Code     6  tls_wl_util.o(.text)
    kref_get                                 0x08054553   Thumb Code    22  tls_wl_util.o(.text)
    kref_put                                 0x08054569   Thumb Code    34  tls_wl_util.o(.text)
    ieee80211_sta_get_rates                  0x0805458b   Thumb Code    98  tls_wl_util.o(.text)
    ieee80211_get_bssid                      0x080545ed   Thumb Code   114  tls_wl_util.o(.text)
    ieee80211_channel_to_frequency           0x0805465f   Thumb Code    32  tls_wl_util.o(.text)
    ieee80211_frequency_to_channel           0x0805467f   Thumb Code    38  tls_wl_util.o(.text)
    ieee80211_get_channel                    0x080546a5   Thumb Code    48  tls_wl_util.o(.text)
    ieee802_11_parse_elems                   0x080546d5   Thumb Code   360  tls_wl_util.o(.text)
    ieee80211_set_freq                       0x0805483d   Thumb Code    64  tls_wl_util.o(.text)
    ieee80211_hdrlen                         0x0805487d   Thumb Code    66  tls_wl_util.o(.text)
    ieee80211_ssid_txt                       0x080548bf   Thumb Code    52  tls_wl_util.o(.text)
    ieee80211_beacon_get                     0x080548f3   Thumb Code    78  tls_wl_util.o(.text)
    ieee80211_get_tim_ie                     0x08054941   Thumb Code    34  tls_wl_util.o(.text)
    ieee80211_get_ds_ie                      0x08054963   Thumb Code    30  tls_wl_util.o(.text)
    ieee80211_get_vendor_ie                  0x08054981   Thumb Code    56  tls_wl_util.o(.text)
    IQ_mismatch_power_cal                    0x080549ed   Thumb Code    68  tls_rf_tx_iq.o(.text)
    IQ_mismatch_correlation_method           0x08054a31   Thumb Code  1420  tls_rf_tx_iq.o(.text)
    IQ_mismatch_phase_adjust_fft             0x08054fbd   Thumb Code  1254  tls_rf_tx_iq.o(.text)
    IQ_Mismatch_method                       0x080554a3   Thumb Code   262  tls_rf_tx_iq.o(.text)
    tx_iqmismatch                            0x080555a9   Thumb Code    22  tls_rf_tx_iq.o(.text)
    prepare_IQ_data                          0x080555f9   Thumb Code    98  tx_lo_cal.o(.text)
    prepare_IQ_data_fft                      0x0805565b   Thumb Code    78  tx_lo_cal.o(.text)
    data_acquire_once                        0x080556a9   Thumb Code    44  tx_lo_cal.o(.text)
    read_IQ_data                             0x080556d5   Thumb Code   130  tx_lo_cal.o(.text)
    rf_data_sample_fft_cal                   0x08055757   Thumb Code    40  tx_lo_cal.o(.text)
    rf_data_sample_fft_cal_t                 0x0805577f   Thumb Code    40  tx_lo_cal.o(.text)
    rf_data_sample_correlation_cal           0x080557a7   Thumb Code   304  tx_lo_cal.o(.text)
    LO_Leakage_correlation                   0x080558d7   Thumb Code  1762  tx_lo_cal.o(.text)
    LO_leakage_fft                           0x08055fb9   Thumb Code  1538  tx_lo_cal.o(.text)
    LO_leakage_func_method                   0x080565bb   Thumb Code   352  tx_lo_cal.o(.text)
    rf_loleakage_cal                         0x0805671b   Thumb Code    32  tx_lo_cal.o(.text)
    aes_unwrap                               0x08056751   Thumb Code   186  aes_unwrap.o(.text)
    mlme_deletekeys_request                  0x0805680b   Thumb Code    12  ap_mlme.o(.text)
    mlme_authenticate_indication             0x08056817   Thumb Code    16  ap_mlme.o(.text)
    mlme_deauthenticate_indication           0x08056827   Thumb Code     2  ap_mlme.o(.text)
    mlme_associate_indication                0x08056829   Thumb Code    10  ap_mlme.o(.text)
    mlme_reassociate_indication              0x08056833   Thumb Code    10  ap_mlme.o(.text)
    mlme_disassociate_indication             0x0805683d   Thumb Code     2  ap_mlme.o(.text)
    mlme_michaelmicfailure_indication        0x0805683f   Thumb Code     2  ap_mlme.o(.text)
    hostapd_eid_wmm                          0x0805687b   Thumb Code   158  beacon.o(.text)
    hostapd_eid_wmm_valid                    0x08056919   Thumb Code    18  beacon.o(.text)
    handle_probe_req                         0x08056955   Thumb Code   344  beacon.o(.text)
    ieee802_11_set_beacon                    0x08056aad   Thumb Code   586  beacon.o(.text)
    wpa_ssid_txt                             0x08056d09   Thumb Code    52  common.o(.text)
    hex2byte                                 0x08056d3d   Thumb Code    42  common.o(.text)
    hexstr2bin                               0x08056d67   Thumb Code    48  common.o(.text)
    inc_byte_array                           0x08056d97   Thumb Code    22  common.o(.text)
    wpa_get_ntp_timestamp                    0x08056dad   Thumb Code    48  common.o(.text)
    wpa_auth_for_each_sta                    0x08056e69   Thumb Code    36  wpa_auth.o(.text)
    wpa_auth_logger                          0x08056e8d   Thumb Code     2  wpa_auth.o(.text)
    __wpa_send_eapol                         0x08056efb   Thumb Code   714  wpa_auth.o(.text)
    wpa_remove_ptk                           0x0805799b   Thumb Code    58  wpa_auth.o(.text)
    wpa_init                                 0x08057dcd   Thumb Code   170  wpa_auth.o(.text)
    wpa_init_keys                            0x08057e77   Thumb Code    28  wpa_auth.o(.text)
    wpa_deinit                               0x08057e93   Thumb Code    56  wpa_auth.o(.text)
    wpa_reconfig                             0x08057ecb   Thumb Code    70  wpa_auth.o(.text)
    wpa_auth_sta_init                        0x08057f11   Thumb Code    46  wpa_auth.o(.text)
    wpa_auth_sta_associated                  0x08057f3f   Thumb Code    88  wpa_auth.o(.text)
    wpa_auth_sta_no_wpa                      0x08057f97   Thumb Code    12  wpa_auth.o(.text)
    wpa_auth_sta_deinit                      0x08057fa3   Thumb Code   104  wpa_auth.o(.text)
    wpa_receive                              0x0805800b   Thumb Code   698  wpa_auth.o(.text)
    wpa_auth_sm_event                        0x080582c5   Thumb Code   128  wpa_auth.o(.text)
    wpa_gtk_rekey                            0x08058345   Thumb Code    42  wpa_auth.o(.text)
    wpa_auth_countermeasures_start           0x0805836f   Thumb Code    12  wpa_auth.o(.text)
    wpa_auth_pairwise_set                    0x0805837b   Thumb Code    16  wpa_auth.o(.text)
    wpa_auth_get_pairwise                    0x0805838b   Thumb Code     6  wpa_auth.o(.text)
    wpa_auth_sta_key_mgmt                    0x08058391   Thumb Code    14  wpa_auth.o(.text)
    wpa_auth_sta_wpa_version                 0x0805839f   Thumb Code    10  wpa_auth.o(.text)
    wpa_auth_sta_clear_pmksa                 0x080583a9   Thumb Code    26  wpa_auth.o(.text)
    wpa_auth_sta_get_pmksa                   0x080583c3   Thumb Code    10  wpa_auth.o(.text)
    wpa_auth_sta_local_mic_failure_report    0x080583cd   Thumb Code    16  wpa_auth.o(.text)
    wpa_auth_get_wpa_ie                      0x080583dd   Thumb Code    14  wpa_auth.o(.text)
    hostapd_deinit_wpa                       0x08058509   Thumb Code    30  wpa_auth_glue.o(.text)
    hostapd_setup_wpa                        0x08058527   Thumb Code    98  wpa_auth_glue.o(.text)
    wpa_write_rsn_ie                         0x080586b1   Thumb Code   362  wpa_auth_ie.o(.text)
    wpa_auth_gen_wpa_ie                      0x0805881b   Thumb Code   110  wpa_auth_ie.o(.text)
    wpa_add_kde                              0x08058889   Thumb Code    72  wpa_auth_ie.o(.text)
    wpa_validate_wpa_ie                      0x080588d1   Thumb Code   536  wpa_auth_ie.o(.text)
    wpa_parse_kde_ies                        0x08058ae9   Thumb Code   114  wpa_auth_ie.o(.text)
    wpa_auth_uses_mfp                        0x08058b5b   Thumb Code    14  wpa_auth_ie.o(.text)
    wpa_eapol_key_mic                        0x08058c15   Thumb Code    62  wpa_common.o(.text)
    rsn_pmkid                                0x08058c53   Thumb Code    54  wpa_common.o(.text)
    wpa_pmk_to_ptk                           0x08058c89   Thumb Code   154  wpa_common.o(.text)
    wpa_cipher_txt                           0x08058d23   Thumb Code    56  wpa_common.o(.text)
    wpa_compare_rsn_ie                       0x08058d5b   Thumb Code    32  wpa_common.o(.text)
    wpa_parse_wpa_ie_rsn                     0x08058de5   Thumb Code   334  wpa_common.o(.text)
    wpa_parse_wpa_ie_wpa                     0x08058f9d   Thumb Code   422  wpa_common.o(.text)
    hex2digit                                0x08059143   Thumb Code    42  wpa_common.o(.text)
    hostapd_drv_sta_remove                   0x08059171   Thumb Code     8  hostapd_wpa_driver.o(.text)
    hostapd_set_sta_flags                    0x08059179   Thumb Code     4  hostapd_wpa_driver.o(.text)
    hostapd_sta_flags_to_drv                 0x0805917d   Thumb Code    36  hostapd_wpa_driver.o(.text)
    hostapd_drv_sta_add                      0x080591a1   Thumb Code    76  hostapd_wpa_driver.o(.text)
    hostapd_drv_send_mlme                    0x080591ed   Thumb Code     8  hostapd_wpa_driver.o(.text)
    hostapd_drv_set_ap                       0x080591f5   Thumb Code   194  hostapd_wpa_driver.o(.text)
    hostapd_drv_sta_set_flags                0x080592b7   Thumb Code     4  hostapd_wpa_driver.o(.text)
    hostapd_drv_set_key                      0x080592bb   Thumb Code    38  hostapd_wpa_driver.o(.text)
    hostapd_get_seqnum                       0x080592e1   Thumb Code     4  hostapd_wpa_driver.o(.text)
    hostapd_drv_set_countermeasures          0x080592e5   Thumb Code     4  hostapd_wpa_driver.o(.text)
    hostapd_drv_hapd_send_eapol              0x080592e9   Thumb Code    24  hostapd_wpa_driver.o(.text)
    hostapd_set_freq                         0x08059301   Thumb Code    34  hostapd_wpa_driver.o(.text)
    hostapd_sta_set_flags                    0x08059323   Thumb Code     4  hostapd_wpa_driver.o(.text)
    hostapd_drv_get_inact_sec                0x08059327   Thumb Code     8  hostapd_wpa_driver.o(.text)
    hostapd_set_authorized                   0x0805932f   Thumb Code    14  hostapd_wpa_driver.o(.text)
    hostapd_drv_sta_flush                    0x0805933d   Thumb Code    10  hostapd_wpa_driver.o(.text)
    hostapd_drv_sta_deauth                   0x08059347   Thumb Code    22  hostapd_wpa_driver.o(.text)
    hostapd_drv_sta_disassoc                 0x0805935d   Thumb Code    22  hostapd_wpa_driver.o(.text)
    hostapd_if_add                           0x08059373   Thumb Code     4  hostapd_wpa_driver.o(.text)
    hostapd_set_tx_queue_params              0x08059377   Thumb Code    22  hostapd_wpa_driver.o(.text)
    fftr2_dit_new                            0x080593b5   Thumb Code   190  tls_rf_fft.o(.text)
    ReverseBits                              0x08059473   Thumb Code    30  tls_rf_fft.o(.text)
    NumberOfBitsNeeded                       0x08059491   Thumb Code    20  tls_rf_fft.o(.text)
    bit_rev                                  0x080594a5   Thumb Code    86  tls_rf_fft.o(.text)
    fft                                      0x080594fb   Thumb Code    20  tls_rf_fft.o(.text)
    aes_wrap                                 0x0805951d   Thumb Code   168  aes_wrap.o(.text)
    __aeabi_uldivmod                         0x080595c5   Thumb Code   102  uldiv.o(.text)
    __aeabi_ldivmod                          0x0805962b   Thumb Code    90  ldiv.o(.text)
    __rt_ctype_table                         0x08059685   Thumb Code     4  ctype_o.o(.text)
    isspace                                  0x0805968d   Thumb Code    18  isspace_o.o(.text)
    toupper                                  0x0805969f   Thumb Code    12  toupper.o(.text)
    tolower                                  0x080596ab   Thumb Code    12  tolower.o(.text)
    rand                                     0x080596b9   Thumb Code    20  rand.o(.text)
    srand                                    0x080596cd   Thumb Code     6  rand.o(.text)
    ____aeabi_memcpy8$ret$move               0x080596dd   Thumb Code     0  memmove.o(.text)
    ___aeabi_memmove4$ret                    0x080596dd   Thumb Code     0  memmove.o(.text)
    ___aeabi_memmove8$ret                    0x080596dd   Thumb Code     0  memmove.o(.text)
    __aeabi_memcpy                           0x080596dd   Thumb Code    66  memmove.o(.text)
    __aeabi_memcpy4                          0x080596dd   Thumb Code     0  memmove.o(.text)
    __aeabi_memmove                          0x080596dd   Thumb Code     0  memmove.o(.text)
    memcpy                                   0x080596dd   Thumb Code     0  memmove.o(.text)
    memmove                                  0x080596dd   Thumb Code     0  memmove.o(.text)
    __aeabi_memset                           0x0805971f   Thumb Code    14  memseta.o(.text)
    __aeabi_memset4                          0x0805971f   Thumb Code     0  memseta.o(.text)
    __aeabi_memset8                          0x0805971f   Thumb Code     0  memseta.o(.text)
    __aeabi_memclr                           0x0805972d   Thumb Code     4  memseta.o(.text)
    __aeabi_memclr4                          0x0805972d   Thumb Code     0  memseta.o(.text)
    __aeabi_memclr8                          0x0805972d   Thumb Code     0  memseta.o(.text)
    memset                                   0x08059731   Thumb Code    20  memseta.o(.text)
    strcat                                   0x08059745   Thumb Code    28  strcat.o(.text)
    strstr                                   0x08059761   Thumb Code    44  strstr.o(.text)
    strncpy                                  0x0805978d   Thumb Code    24  strncpy.o(.text)
    strchr                                   0x080597a5   Thumb Code    18  strchr.o(.text)
    strlen                                   0x080597b7   Thumb Code    16  strlen.o(.text)
    strcmp                                   0x080597c7   Thumb Code    28  strcmp.o(.text)
    memchr                                   0x080597e3   Thumb Code    20  memchr.o(.text)
    memcmp                                   0x080597f7   Thumb Code    26  memcmp.o(.text)
    strcpy                                   0x08059811   Thumb Code    18  strcpy.o(.text)
    strncmp                                  0x08059823   Thumb Code    30  strncmp.o(.text)
    strcasecmp                               0x08059841   Thumb Code    42  strcasecmp.o(.text)
    __0sscanf                                0x0805986d   Thumb Code    48  __0sscanf.o(.text)
    _scanf_int                               0x080598a5   Thumb Code   334  _scanf_int.o(.text)
    _scanf_string                            0x080599f3   Thumb Code   216  _scanf_str.o(.text)
    atoi                                     0x08059acb   Thumb Code    26  atoi.o(.text)
    atol                                     0x08059ae5   Thumb Code    26  atol.o(.text)
    __aeabi_dadd                             0x08059aff   Thumb Code   318  dadd.o(.text)
    __aeabi_dsub                             0x08059c3d   Thumb Code     6  dadd.o(.text)
    __aeabi_drsub                            0x08059c43   Thumb Code     6  dadd.o(.text)
    __aeabi_dmul                             0x08059c49   Thumb Code   226  dmul.o(.text)
    __aeabi_ddiv                             0x08059d2b   Thumb Code   222  ddiv.o(.text)
    __ARM_scalbn                             0x08059e09   Thumb Code    46  dscalb.o(.text)
    scalbn                                   0x08059e09   Thumb Code     0  dscalb.o(.text)
    __aeabi_i2d                              0x08059e37   Thumb Code    34  dflti.o(.text)
    __aeabi_ui2d                             0x08059e59   Thumb Code    26  dfltui.o(.text)
    __aeabi_d2iz                             0x08059e73   Thumb Code    62  dfixi.o(.text)
    __aeabi_d2ulz                            0x08059eb1   Thumb Code    48  dfixul.o(.text)
    __aeabi_cdrcmple                         0x08059ee1   Thumb Code    38  cdrcmple.o(.text)
    __aeabi_uidiv                            0x08059f09   Thumb Code     0  uidiv.o(.text)
    __aeabi_uidivmod                         0x08059f09   Thumb Code    44  uidiv.o(.text)
    __aeabi_llsl                             0x08059f35   Thumb Code    30  llshl.o(.text)
    _ll_shift_l                              0x08059f35   Thumb Code     0  llshl.o(.text)
    __aeabi_llsr                             0x08059f53   Thumb Code    32  llushr.o(.text)
    _ll_ushift_r                             0x08059f53   Thumb Code     0  llushr.o(.text)
    __aeabi_lasr                             0x08059f73   Thumb Code    36  llsshr.o(.text)
    _ll_sshift_r                             0x08059f73   Thumb Code     0  llsshr.o(.text)
    _chval                                   0x08059f97   Thumb Code    32  _chval.o(.text)
    __vfscanf_char                           0x08059fc5   Thumb Code    22  scanf_char.o(.text)
    _sgetc                                   0x08059fe5   Thumb Code    30  _sgetc.o(.text)
    _sbackspace                              0x0805a003   Thumb Code    34  _sgetc.o(.text)
    strtol                                   0x0805a025   Thumb Code   112  strtol.o(.text)
    __I$use$fp                               0x0805a095   Thumb Code     0  iusefp.o(.text)
    _double_round                            0x0805a095   Thumb Code    26  depilogue.o(.text)
    _double_epilogue                         0x0805a0af   Thumb Code   168  depilogue.o(.text)
    __scatterload                            0x0805a159   Thumb Code    28  init.o(.text)
    __scatterload_rt2                        0x0805a159   Thumb Code     0  init.o(.text)
    __vfscanf                                0x0805a17d   Thumb Code   818  _scanf.o(.text)
    _strtoul                                 0x0805a4b5   Thumb Code   156  _strtoul.o(.text)
    __decompress                             0x0805a551   Thumb Code     0  __dczerorl2.o(.text)
    __decompress1                            0x0805a551   Thumb Code    92  __dczerorl2.o(.text)
    __0printf                                0x0805a5ad   Thumb Code    22  printfa.o(i.__0printf)
    __1printf                                0x0805a5ad   Thumb Code     0  printfa.o(i.__0printf)
    __2printf                                0x0805a5ad   Thumb Code     0  printfa.o(i.__0printf)
    __c89printf                              0x0805a5ad   Thumb Code     0  printfa.o(i.__0printf)
    printf                                   0x0805a5ad   Thumb Code     0  printfa.o(i.__0printf)
    __0snprintf                              0x0805a5cd   Thumb Code    36  printfa.o(i.__0snprintf)
    __1snprintf                              0x0805a5cd   Thumb Code     0  printfa.o(i.__0snprintf)
    __2snprintf                              0x0805a5cd   Thumb Code     0  printfa.o(i.__0snprintf)
    __c89snprintf                            0x0805a5cd   Thumb Code     0  printfa.o(i.__0snprintf)
    snprintf                                 0x0805a5cd   Thumb Code     0  printfa.o(i.__0snprintf)
    __0sprintf                               0x0805a5f5   Thumb Code    34  printfa.o(i.__0sprintf)
    __1sprintf                               0x0805a5f5   Thumb Code     0  printfa.o(i.__0sprintf)
    __2sprintf                               0x0805a5f5   Thumb Code     0  printfa.o(i.__0sprintf)
    __c89sprintf                             0x0805a5f5   Thumb Code     0  printfa.o(i.__0sprintf)
    sprintf                                  0x0805a5f5   Thumb Code     0  printfa.o(i.__0sprintf)
    __aeabi_errno_addr                       0x0805a61d   Thumb Code     4  errno.o(i.__aeabi_errno_addr)
    __rt_errno_addr                          0x0805a61d   Thumb Code     0  errno.o(i.__aeabi_errno_addr)
    free                                     0x0805a625   Thumb Code    88  mallocr.o(i.__free$realloc)
    malloc                                   0x0805a681   Thumb Code    64  mallocr.o(i.__malloc$realloc)
    __scatterload_copy                       0x0805a6d1   Thumb Code    14  handlers.o(i.__scatterload_copy)
    __scatterload_null                       0x0805a6df   Thumb Code     2  handlers.o(i.__scatterload_null)
    __scatterload_zeroinit                   0x0805a6e1   Thumb Code    14  handlers.o(i.__scatterload_zeroinit)
    realloc                                  0x0805afd5   Thumb Code   108  mallocr.o(i.realloc)
    FirmWareVer                              0x0805b044   Data           4  wm_main.o(.constdata)
    HwVer                                    0x0805b048   Data           6  wm_main.o(.constdata)
    baud_rates                               0x0805b050   Data          68  wm_driver.o(.constdata)
    lsd_dst_addr                             0x0805bbd2   Data           3  wm_oneshot_lsd.o(.constdata)
    lsd_crc_table                            0x0805bbd5   Data         256  wm_oneshot_lsd.o(.constdata)
    SysCreatedDate                           0x0805bcd8   Data          12  wm_cmd.o(.constdata)
    SysCreatedTime                           0x0805bce4   Data           9  wm_cmd.o(.constdata)
    HZ                                       0x0805be98   Data           4  wm_rtos.o(.constdata)
    memp_RAW_PCB                             0x0805bf04   Data           2  lwip2.0.3.o(.constdata)
    memp_UDP_PCB                             0x0805bf06   Data           2  lwip2.0.3.o(.constdata)
    memp_TCP_PCB                             0x0805bf08   Data           2  lwip2.0.3.o(.constdata)
    memp_TCP_PCB_LISTEN                      0x0805bf0a   Data           2  lwip2.0.3.o(.constdata)
    memp_TCP_SEG                             0x0805bf0c   Data           2  lwip2.0.3.o(.constdata)
    memp_REASSDATA                           0x0805bf0e   Data           2  lwip2.0.3.o(.constdata)
    memp_FRAG_PBUF                           0x0805bf10   Data           2  lwip2.0.3.o(.constdata)
    memp_NETBUF                              0x0805bf12   Data           2  lwip2.0.3.o(.constdata)
    memp_NETCONN                             0x0805bf14   Data           2  lwip2.0.3.o(.constdata)
    memp_TCPIP_MSG_API                       0x0805bf16   Data           2  lwip2.0.3.o(.constdata)
    memp_TCPIP_MSG_INPKT                     0x0805bf18   Data           2  lwip2.0.3.o(.constdata)
    memp_IGMP_GROUP                          0x0805bf1a   Data           2  lwip2.0.3.o(.constdata)
    memp_SYS_TIMEOUT                         0x0805bf1c   Data           2  lwip2.0.3.o(.constdata)
    memp_NETDB                               0x0805bf1e   Data           2  lwip2.0.3.o(.constdata)
    memp_PBUF                                0x0805bf20   Data           2  lwip2.0.3.o(.constdata)
    memp_PBUF_POOL                           0x0805bf22   Data           2  lwip2.0.3.o(.constdata)
    ip_addr_any                              0x0805bf24   Data           4  lwip2.0.3.o(.constdata)
    ip_addr_broadcast                        0x0805bf28   Data           4  lwip2.0.3.o(.constdata)
    ethbroadcast                             0x0805bf2c   Data           6  lwip2.0.3.o(.constdata)
    ethzero                                  0x0805bf32   Data           6  lwip2.0.3.o(.constdata)
    memp_pools                               0x0805bf48   Data          64  lwip2.0.3.o(.constdata)
    tcp_pcb_lists                            0x0805bfc4   Data          16  lwip2.0.3.o(.constdata)
    lwip_cyclic_timers                       0x0805bfd4   Data          56  lwip2.0.3.o(.constdata)
    file_404_html                            0x0805dce0   Data          16  fs.o(.constdata)
    file_hedbasic_html                       0x0805dcf0   Data          16  fs.o(.constdata)
    file_hedfirmware_html                    0x0805dd00   Data          16  fs.o(.constdata)
    file_index_html                          0x0805dd10   Data          16  fs.o(.constdata)
    file_jump_html                           0x0805dd20   Data          16  fs.o(.constdata)
    file_style_css                           0x0805dd30   Data          16  fs.o(.constdata)
    g_psDefaultFilenames                     0x0805dd40   Data          16  httpd.o(.constdata)
    web_id_tbl                               0x0805ddc0   Data         528  web.o(.constdata)
    hed_rf_txgainmap                         0x0805f3dc   Data          64  tls_wl_rf.o(.constdata)
    central_freq                             0x0805f41c   Data         120  tls_wl_rf.o(.constdata)
    bbp_value                                0x0805f5ac   Data          80  tls_wl_phy.o(.constdata)
    __ctype_table                            0x0805fe02   Data         129  ctype_o.o(.constdata)
    Region$$Table$$Base                      0x08060430   Number         0  anon$$obj.o(Region$$Table)
    Region$$Table$$Limit                     0x08060450   Number         0  anon$$obj.o(Region$$Table)
    __stdout                                 0x20000000   Data           4  retarget.o(.data)
    libc_sem                                 0x20000004   Data           4  wm_main.o(.data)
    adc_irq_flag                             0x2000000d   Data           1  wm_driver.o(.data)
    tst_flag                                 0x2000000e   Data           1  wm_driver.o(.data)
    intr_counter                             0x2000000f   Data           1  wm_driver.o(.data)
    crypto_complete                          0x200000b9   Data           1  wm_common.o(.data)
    memory_manager_initialized               0x200000ba   Data           1  wm_common.o(.data)
    updp_mode                                0x200000bb   Data           1  wm_common.o(.data)
    mem_sem                                  0x200000cc   Data           4  wm_common.o(.data)
    guconeshotflag                           0x200000fc   Data           1  wm_wifi_oneshot.o(.data)
    gucssidokflag                            0x200000fd   Data           1  wm_wifi_oneshot.o(.data)
    gucbssidokflag                           0x200000fe   Data           1  wm_wifi_oneshot.o(.data)
    gucpwdokflag                             0x200000ff   Data           1  wm_wifi_oneshot.o(.data)
    guchandshakeflag                         0x20000101   Data           1  wm_wifi_oneshot.o(.data)
    oneshottime                              0x2000010c   Data           4  wm_wifi_oneshot.o(.data)
    oneshot_msg_q                            0x20000114   Data           4  wm_wifi_oneshot.o(.data)
    oneshotCpuClk                            0x20000118   Data           4  wm_wifi_oneshot.o(.data)
    skt_descp                                0x20000134   Data           4  wm_wifi_oneshot.o(.data)
    sock_rx                                  0x20000138   Data           4  wm_wifi_oneshot.o(.data)
    is_airkiss                               0x20000174   Data           1  wm_oneshot_airkiss.o(.data)
    lsd_state                                0x20000188   Data           1  wm_oneshot_lsd.o(.data)
    lsd_head_bw20                            0x20000189   Data           1  wm_oneshot_lsd.o(.data)
    lsd_sync_cnt                             0x2000018a   Data           1  wm_oneshot_lsd.o(.data)
    lsd_data_cnt                             0x2000018b   Data           1  wm_oneshot_lsd.o(.data)
    lsd_temp_lock                            0x2000018c   Data           1  wm_oneshot_lsd.o(.data)
    lsd_crc_value                            0x2000018d   Data           1  wm_oneshot_lsd.o(.data)
    lsd_last_num                             0x2000018e   Data           2  wm_oneshot_lsd.o(.data)
    lsd_data_datum                           0x20000190   Data           2  wm_oneshot_lsd.o(.data)
    lsd_head_cnt                             0x20000192   Data           2  wm_oneshot_lsd.o(.data)
    lsd_byte_cnt                             0x20000194   Data           2  wm_oneshot_lsd.o(.data)
    lsd_printf                               0x20000198   Data           4  wm_oneshot_lsd.o(.data)
    lsd_last_seq                             0x2000019c   Data           4  wm_oneshot_lsd.o(.data)
    lsd_src_mac                              0x200001a4   Data           6  wm_oneshot_lsd.o(.data)
    gfwupdatemode                            0x200001ac   Data           1  wm_cmd.o(.data)
    default_socket                           0x200001ad   Data           1  wm_cmd.o(.data)
    pSession_flag                            0x200001ae   Data           1  wm_cmd.o(.data)
    gulCalFlag                               0x200001af   Data           1  wm_cmd.o(.data)
    RSTTIMER                                 0x200001b4   Data           4  wm_cmd.o(.data)
    set_uart0_mode_callback                  0x200001c4   Data           4  wm_cmd.o(.data)
    get_uart1_port_callback                  0x200001c8   Data           4  wm_cmd.o(.data)
    set_uart1_mode_callback                  0x200001cc   Data           4  wm_cmd.o(.data)
    set_uart1_sock_param_callback            0x200001d0   Data           4  wm_cmd.o(.data)
    g_hspi                                   0x200001d4   Data           8  wm_cmd.o(.data)
    wl_task_param_hostif                     0x200001dc   Data          20  wm_cmd.o(.data)
    os_cnter                                 0x200008e0   Data           4  wm_rtos.o(.data)
    pxCurrentTCB                             0x200008e4   Data           4  wm_rtos.o(.data)
    pxCurrentCoRoutine                       0x2000092c   Data           4  wm_rtos.o(.data)
    pbuf_free_ooseq_pending                  0x20000984   Data           1  lwip2.0.3.o(.data)
    tcp_active_pcbs_changed                  0x20000985   Data           1  lwip2.0.3.o(.data)
    lwip_task_priopity_stack                 0x2000098c   Data           1  lwip2.0.3.o(.data)
    netconn_aborted                          0x2000098d   Data           1  lwip2.0.3.o(.data)
    current_src_ip                           0x200009a8   Data           4  lwip2.0.3.o(.data)
    sndbuf_len                               0x200009ac   Data           4  lwip2.0.3.o(.data)
    netif_list                               0x200009d4   Data           4  lwip2.0.3.o(.data)
    netif_default                            0x200009d8   Data           4  lwip2.0.3.o(.data)
    tcp_ticks                                0x200009e0   Data           4  lwip2.0.3.o(.data)
    tcp_bound_pcbs                           0x200009e4   Data           4  lwip2.0.3.o(.data)
    tcp_listen_pcbs                          0x200009e8   Data           4  lwip2.0.3.o(.data)
    tcp_active_pcbs                          0x200009ec   Data           4  lwip2.0.3.o(.data)
    tcp_tw_pcbs                              0x200009f0   Data           4  lwip2.0.3.o(.data)
    tcp_input_pcb                            0x20000a08   Data           4  lwip2.0.3.o(.data)
    udp_pcbs                                 0x20000a0c   Data           4  lwip2.0.3.o(.data)
    h_errno                                  0x20000a38   Data           4  lwip2.0.3.o(.data)
    g_pCGIs                                  0x20000b8c   Data           4  httpd.o(.data)
    g_iNumCGIs                               0x20000b90   Data           4  httpd.o(.data)
    gwebcfgmode                              0x20000ba1   Data           1  web.o(.data)
    Res                                      0x20000ba4   Data          16  web.o(.data)
    Cgi                                      0x20000bb4   Data          64  web.o(.data)
    ap_iface                                 0x20000bf4   Data           4  ap.o(.data)
    wpa_s                                    0x20000c0c   Data           4  wpa_supplicant.o(.data)
    supplicant_event_ops                     0x20000c18   Data          68  wpa_supplicant.o(.data)
    pfunstandby                              0x20000c60   Data           4  tls_wl_core.o(.data)
    SEC_TXBUF_NUM                            0x20000c64   Data           4  tls_wl_core.o(.data)
    SEC_RXBUF_NUM                            0x20000c68   Data           4  tls_wl_core.o(.data)
    SEC_TX_DESC_NUM                          0x20000c6c   Data           4  tls_wl_core.o(.data)
    wif                                      0x20000c70   Data           4  tls_wl_core.o(.data)
    BEACON_BUF_ADDR                          0x20000c74   Data           4  tls_wl_core.o(.data)
    BEACON_BUF_END_ADDR                      0x20000c78   Data           4  tls_wl_core.o(.data)
    SEC_TXBUF_BASE_ADDR                      0x20000c7c   Data           4  tls_wl_core.o(.data)
    SEC_TXBUF_TOTAL_SIZE                     0x20000c80   Data           4  tls_wl_core.o(.data)
    SEC_TX_DESC_BASE_ADDR                    0x20000c84   Data           4  tls_wl_core.o(.data)
    SEC_TX_DESC_TOTAL_SIZE                   0x20000c88   Data           4  tls_wl_core.o(.data)
    SEC_TX_FRM_HDR_BASE_ADDR                 0x20000c8c   Data           4  tls_wl_core.o(.data)
    SEC_TX_FRM_HDR_TOTAL_SIZE                0x20000c90   Data           4  tls_wl_core.o(.data)
    MGMT_TX_FRM_HDR_BASE_ADDR                0x20000c94   Data           4  tls_wl_core.o(.data)
    MGMT_TXBUF_TOTAL_SIZE                    0x20000c98   Data           4  tls_wl_core.o(.data)
    MGMT_TX_DESC_BASE_ADDR                   0x20000c9c   Data           4  tls_wl_core.o(.data)
    MGMT_TX_DESC_TOTAL_SIZE                  0x20000ca0   Data           4  tls_wl_core.o(.data)
    SEC_RXBUF_BASE_ADDR                      0x20000ca4   Data           4  tls_wl_core.o(.data)
    SEC_RXBUF_TOTAL_SIZE                     0x20000ca8   Data           4  tls_wl_core.o(.data)
    SEC_RX_DESC_BASE_ADDR                    0x20000cac   Data           4  tls_wl_core.o(.data)
    SEC_RX_DESC_TOTAL_SIZE                   0x20000cb0   Data           4  tls_wl_core.o(.data)
    MAC_TXBUF_BASE_ADDR                      0x20000cb4   Data           4  tls_wl_core.o(.data)
    MAC_MAX_BUF_SIZE                         0x20000cb8   Data           4  tls_wl_core.o(.data)
    MAC_MAX_TXBUF_CNT                        0x20000cbc   Data           4  tls_wl_core.o(.data)
    MAC_MAX_RXBUF_CNT                        0x20000cc0   Data           4  tls_wl_core.o(.data)
    MAC_RXBUF_BASE_ADDR                      0x20000cc4   Data           4  tls_wl_core.o(.data)
    MAC_RXBUF_END_ADDR                       0x20000cc8   Data           4  tls_wl_core.o(.data)
    MAC_TX_WB_BD_BUFFER_ADDR                 0x20000ccc   Data           4  tls_wl_core.o(.data)
    MAC_TX_WB_BD_BUFFER_END_ADDR             0x20000cd0   Data           4  tls_wl_core.o(.data)
    wl_region                                0x20000cd4   Data          24  tls_wl_hw.o(.data)
    band_2GHz                                0x20000cec   Data          44  tls_wl_hw.o(.data)
    sleepmode                                0x20000e20   Data           1  tls_wl_if.o(.data)
    hed_rf_current_channel                   0x20000e38   Data           4  tls_wl_rf.o(.data)
    hed_rf_chan_type                         0x20000e3c   Data           4  tls_wl_rf.o(.data)
    rf_set_chan_common_data_20m              0x20000e40   Data         120  tls_wl_rf.o(.data)
    rf_chan24g_20m                           0x20000eb8   Data         120  tls_wl_rf.o(.data)
    cos_1M                                   0x20000f30   Data         156  tls_wl_rf.o(.data)
    cos_2M                                   0x20000fcc   Data          80  tls_wl_rf.o(.data)
    cos_5M                                   0x2000101c   Data          32  tls_wl_rf.o(.data)
    cos_10M                                  0x2000103c   Data          16  tls_wl_rf.o(.data)
    litept_tx_flag                           0x2000104c   Data           4  tls_wl_tx.o(.data)
    g_wl_txbuf                               0x20001050   Data           4  tls_wl_tx.o(.data)
    rfc1042_header                           0x20001054   Data           6  tls_wl_tx.o(.data)
    bridge_tunnel_header                     0x2000105a   Data           6  tls_wl_tx.o(.data)
    g_wifi_data_recv_callback                0x20001060   Data           4  wm_wifi_api.o(.data)
    g_wifi_data_ext_recv_callback            0x20001064   Data           4  wm_wifi_api.o(.data)
    g_ltpt_testmode                          0x2000108c   Data           4  litepoint.o(.data)
    rndmem                                   0x20001090   Data           4  litepoint.o(.data)
    g_ltpt_rxinfo                            0x20001098   Data           4  litepoint.o(.data)
    g_ltpt_txinfo                            0x2000109c   Data           4  litepoint.o(.data)
    rateArray                                0x200010a0   Data         116  litepoint.o(.data)
    f_bss                                    0x20001114   Data           4  tls_wl_bss.o(.data)
    g_wl_rxbuf                               0x20001434   Data           4  tls_wl_rx.o(.data)
    angel                                    0x2000143c   Data        2404  tls_rf_tx_iq.o(.data)
    _set_chan_common_iqmismatch_20mrf        0x20001da0   Data          88  tls_rf_tx_iq.o(.data)
    sample_num                               0x20001df8   Data           4  tx_lo_cal.o(.data)
    tx_rx                                    0x20001dfc   Data           4  tx_lo_cal.o(.data)
    _set_chan_common_data_20mrf              0x20001e00   Data          88  tx_lo_cal.o(.data)
    sin16                                    0x20001e58   Data          64  tx_lo_cal.o(.data)
    cos16                                    0x20001e98   Data          64  tx_lo_cal.o(.data)
    cos132                                   0x20001ed8   Data          64  tx_lo_cal.o(.data)
    sin132                                   0x20001f18   Data          64  tx_lo_cal.o(.data)
    FFT_Data                                 0x20001f58   Data           4  tls_rf_fft.o(.data)
    tempRev                                  0x20001f5c   Data           4  tls_rf_fft.o(.data)
    __microlib_freelist                      0x20001f68   Data           4  mvars.o(.data)
    __microlib_freelist_initialised          0x20001f6c   Data           4  mvars.o(.data)
    __initial_sp                             0x20002370   Data           0  startup_venus.o(.bss)
    TaskStartStk                             0x200024f0   Data        4800  wm_main.o(.bss)
    uart_port                                0x20003d58   Data         420  wm_driver.o(.bss)
    intr_handler_vect                        0x200040fc   Data         164  wm_driver.o(.bss)
    g_slave_hspi                             0x200041b4   Data          24  wm_driver.o(.bss)
    gftParam                                 0x200041cc   Data         128  wm_driver.o(.bss)
    gst_adc                                  0x200042ec   Data          20  wm_driver.o(.bss)
    sc_io                                    0x20004334   Data          20  wm_driver.o(.bss)
    imgheader                                0x20004748   Data         112  wm_common.o(.bss)
    wl_msg                                   0x200047d8   Data         180  wm_common.o(.bss)
    next_timeout                             0x2000488c   Data          36  wm_common.o(.bss)
    user_default_param                       0x20004f14   Data         808  wm_common.o(.bss)
    gucssidData                              0x2000556c   Data          33  wm_wifi_oneshot.o(.bss)
    gucpwdData                               0x2000558d   Data          65  wm_wifi_oneshot.o(.bss)
    lsd_head                                 0x2000703c   Data          16  wm_oneshot_lsd.o(.bss)
    lsd_byte                                 0x2000704c   Data          16  wm_oneshot_lsd.o(.bss)
    lsd_data                                 0x2000705c   Data         512  wm_oneshot_lsd.o(.bss)
    lsd_param                                0x2000725c   Data         236  wm_oneshot_lsd.o(.bss)
    socket_cfg                               0x20007348   Data          48  wm_cmd.o(.bss)
    g_hostif                                 0x20007378   Data          44  wm_cmd.o(.bss)
    sockrecvmit                              0x200073a4   Data          80  wm_cmd.o(.bss)
    skt_desc_def                             0x200073f4   Data          80  wm_cmd.o(.bss)
    skt_desc                                 0x20007444   Data          80  wm_cmd.o(.bss)
    uart_st                                  0x20007494   Data          96  wm_cmd.o(.bss)
    ricmd_buffer                             0x200074f4   Data         208  wm_cmd.o(.bss)
    hostif_stk                               0x200075c4   Data        2000  wm_cmd.o(.bss)
    conn_op_completed                        0x2000b3ac   Data          80  lwip2.0.3.o(.bss)
    p_net_conn                               0x2000b524   Data          80  lwip2.0.3.o(.bss)
    lwip_stats                               0x2000ba48   Data         214  lwip2.0.3.o(.bss)
    ip_data                                  0x2000bb30   Data          24  lwip2.0.3.o(.bss)
    dhcp_rx_options_val                      0x2000bb5c   Data          40  lwip2.0.3.o(.bss)
    dhcp_rx_options_given                    0x2000bb84   Data          10  lwip2.0.3.o(.bss)
    lwip_task_stk                            0x2000bc80   Data        2048  lwip2.0.3.o(.bss)
    socket_ipv4_multicast_memberships        0x2000c48c   Data          96  lwip2.0.3.o(.bss)
    fs_memory                                0x2000db54   Data         240  fs.o(.bss)
    supplicant_task_stk                      0x2000dcd8   Data        8192  wpa_supplicant.o(.bss)
    supplicant_timer_task_stk                0x2000fcd8   Data         512  wpa_supplicant.o(.bss)
    tx_gain_group                            0x2000fed8   Data          84  tls_wl_core.o(.bss)
    scan_task_stk                            0x2000ff2c   Data         800  tls_wl_core.o(.bss)
    mlme_task_stk                            0x2001024c   Data        1200  tls_wl_core.o(.bss)
    rx_task_stk                              0x200106fc   Data        1600  tls_wl_core.o(.bss)
    bss_mgmt_task_stk                        0x20010d3c   Data         512  tls_wl_core.o(.bss)
    g_wl_mgmt_txbuf                          0x20010f3c   Data         216  tls_wl_tx.o(.bss)
    gauiqpwr                                 0x200114c0   Data        2048  tls_rf_tx_iq.o(.bss)
    gauleakagepwrI                           0x20011cc0   Data         512  tx_lo_cal.o(.bss)
    gauleakagepwrq                           0x20011ec0   Data         512  tx_lo_cal.o(.bss)
    __heap_base                              0x200120e8   Data           0  startup_venus.o(HEAP)
    __heap_limit                             0x2002c0e8   Data           0  startup_venus.o(HEAP)



==============================================================================

Memory Map of the image

  Image Entry point : 0x080101ed

  Load Region LR_IROM1 (Base: 0x08010100, Size: 0x000522c0, Max: 0x00080000, ABSOLUTE, COMPRESSED[0x000512dc])

    Execution Region ER_IROM1 (Base: 0x08010100, Size: 0x00050350, Max: 0x00080000, ABSOLUTE)

    Base Addr    Size         Type   Attr      Idx    E Section Name        Object

    0x08010100   0x000000ec   Data   RO          132    RESET               startup_venus.o
    0x080101ec   0x00000000   Code   RO         7456  * .ARM.Collect$$$$00000000  mc_w.l(entry.o)(mc_w.l)
    0x080101ec   0x00000004   Code   RO         7917    .ARM.Collect$$$$00000001  mc_w.l(entry2.o)(mc_w.l)
    0x080101f0   0x00000004   Code   RO         7920    .ARM.Collect$$$$00000004  mc_w.l(entry5.o)(mc_w.l)
    0x080101f4   0x00000008   Code   RO         7921    .ARM.Collect$$$$00000007  mc_w.l(entry7.o)(mc_w.l)
    0x080101fc   0x00000004   Code   RO         7918    .ARM.Collect$$$$00002712  mc_w.l(entry2.o)(mc_w.l)
    0x08010200   0x00000096   Code   RO         1742    .emb_text           wm_rtos.o
    0x08010296   0x00000002   PAD
    0x08010298   0x00000018   Code   RO            1    .text               main.o
    0x080102b0   0x00000028   Code   RO          133    .text               startup_venus.o
    0x080102d8   0x0000053e   Code   RO          138    .text               retarget.o
    0x08010816   0x00000002   PAD
    0x08010818   0x000000d0   Code   RO          178    .text               misc.o
    0x080108e8   0x0000019c   Code   RO          197    .text               wm_main.o
    0x08010a84   0x000003a0   Code   RO          372    .text               tls_sys.o
    0x08010e24   0x00005c64   Code   RO          407    .text               wm_driver.o
    0x08016a88   0x00006558   Code   RO          663    .text               wm_common.o
    0x0801cfe0   0x000008b8   Code   RO         1300    .text               dhcp_server.o
    0x0801d898   0x00000324   Code   RO         1451    .text               dns_server.o
    0x0801dbbc   0x0000134c   Code   RO         1475    .text               wm_wifi_oneshot.o
    0x0801ef08   0x0000021c   Code   RO         1523    .text               wm_oneshot_airkiss.o
    0x0801f124   0x00000824   Code   RO         1556    .text               wm_oneshot_lsd.o
    0x0801f948   0x00006dc8   Code   RO         1591    .text               wm_cmd.o
    0x08026710   0x00001d4c   Code   RO         1743    .text               wm_rtos.o
    0x0802845c   0x0000c1a0   Code   RO         1831    .text               lwip2.0.3.o
    0x080345fc   0x000019e8   Code   RO         3042    .text               wm_http_compile.o
    0x08035fe4   0x0000057c   Code   RO         3125    .text               ping.o
    0x08036560   0x00006686   Code   RO         3165    .text               wm_matrixssl_compile.o
    0x0803cbe6   0x00000002   PAD
    0x0803cbe8   0x000002ec   Code   RO         4234    .text               wm_http_fwup.o
    0x0803ced4   0x0000016c   Code   RO         4269    .text               wm_socket_fwup.o
    0x0803d040   0x00000228   Code   RO         4293    .text               fs.o
    0x0803d268   0x000008ec   Code   RO         4343    .text               httpd.o
    0x0803db54   0x00000520   Code   RO         4380    .text               web.o
    0x0803e074   0x000009c0   Code   RO         4419    .text               libairkiss_log.lib(airkiss_log.o)(libairkiss_log.lib)
    0x0803ea34   0x000008b4   Code   RO         4422    .text               wlan.lib(aesMatrix.o)(wlan.lib)
    0x0803f2e8   0x00000880   Code   RO         4448    .text               wlan.lib(ap.o)(wlan.lib)
    0x0803fb68   0x0000095c   Code   RO         4594    .text               wlan.lib(md5.o)(wlan.lib)
    0x080404c4   0x00000180   Code   RO         4674    .text               wlan.lib(random.o)(wlan.lib)
    0x08040644   0x00000116   Code   RO         4712    .text               wlan.lib(rc4.o)(wlan.lib)
    0x0804075a   0x0000017e   Code   RO         4753    .text               wlan.lib(sha1.o)(wlan.lib)
    0x080408d8   0x000012b8   Code   RO         4775    .text               wlan.lib(sha1_internal.o)(wlan.lib)
    0x08041b90   0x00000478   Code   RO         4818    .text               wlan.lib(sha256.o)(wlan.lib)
    0x08042008   0x00001628   Code   RO         4836    .text               wlan.lib(wpa_supplicant.o)(wlan.lib)
    0x08043630   0x000009c4   Code   RO         4985    .text               wlan.lib(tls_wl_core.o)(wlan.lib)
    0x08043ff4   0x00000cd4   Code   RO         5086    .text               wlan.lib(tls_wl_hw.o)(wlan.lib)
    0x08044cc8   0x00000be8   Code   RO         5146    .text               wlan.lib(tls_wl_if.o)(wlan.lib)
    0x080458b0   0x00000874   Code   RO         5200    .text               wlan.lib(tls_wl_rf.o)(wlan.lib)
    0x08046124   0x000012d4   Code   RO         5242    .text               wlan.lib(tls_wl_tx.o)(wlan.lib)
    0x080473f8   0x0000132c   Code   RO         5319    .text               wlan.lib(wm_wifi_api.o)(wlan.lib)
    0x08048724   0x00000868   Code   RO         5523    .text               wlan.lib(wm_wifi_oneshot_api.o)(wlan.lib)
    0x08048f8c   0x00000540   Code   RO         5562    .text               wlan.lib(litepoint.o)(wlan.lib)
    0x080494cc   0x0000154c   Code   RO         5654    .text               wlan.lib(libtommath.o)(wlan.lib)
    0x0804aa18   0x00000272   Code   RO         5680    .text               wlan.lib(bss.o)(wlan.lib)
    0x0804ac8a   0x00000002   PAD
    0x0804ac8c   0x00000f9c   Code   RO         5735    .text               wlan.lib(events.o)(wlan.lib)
    0x0804bc28   0x00000324   Code   RO         5819    .text               wlan.lib(hostapd.o)(wlan.lib)
    0x0804bf4c   0x00000094   Code   RO         5882    .text               wlan.lib(ieee802_1x.o)(wlan.lib)
    0x0804bfe0   0x00000a0e   Code   RO         5940    .text               wlan.lib(ieee802_11.o)(wlan.lib)
    0x0804c9ee   0x000002a2   Code   RO         5998    .text               wlan.lib(ieee802_11_common.o)(wlan.lib)
    0x0804cc90   0x0000006c   Code   RO         6038    .text               wlan.lib(os_internal.o)(wlan.lib)
    0x0804ccfc   0x000001ec   Code   RO         6054    .text               wlan.lib(scan.o)(wlan.lib)
    0x0804cee8   0x000000f8   Code   RO         6107    .text               wlan.lib(sha1-pbkdf2.o)(wlan.lib)
    0x0804cfe0   0x000005ac   Code   RO         6126    .text               wlan.lib(hostapd_sta_info.o)(wlan.lib)
    0x0804d58c   0x000000f0   Code   RO         6179    .text               wlan.lib(tkip_countermeasures.o)(wlan.lib)
    0x0804d67c   0x0000104a   Code   RO         6231    .text               wlan.lib(wpa.o)(wlan.lib)
    0x0804e6c6   0x0000047a   Code   RO         6299    .text               wlan.lib(wpa_driver.o)(wlan.lib)
    0x0804eb40   0x000003f4   Code   RO         6349    .text               wlan.lib(wpa_ie.o)(wlan.lib)
    0x0804ef34   0x00000142   Code   RO         6395    .text               wlan.lib(wpabuf.o)(wlan.lib)
    0x0804f076   0x00000134   Code   RO         6415    .text               wlan.lib(wpas_glue.o)(wlan.lib)
    0x0804f1aa   0x00000002   PAD
    0x0804f1ac   0x000006e8   Code   RO         6479    .text               wlan.lib(tls_wl_bss.o)(wlan.lib)
    0x0804f894   0x0000033e   Code   RO         6536    .text               wlan.lib(tls_wl_key.o)(wlan.lib)
    0x0804fbd2   0x00000002   PAD
    0x0804fbd4   0x00000cbc   Code   RO         6571    .text               wlan.lib(tls_wl_mgmt.o)(wlan.lib)
    0x08050890   0x000017c8   Code   RO         6608    .text               wlan.lib(tls_wl_mlme.o)(wlan.lib)
    0x08052058   0x00000088   Code   RO         6661    .text               wlan.lib(tls_wl_phy.o)(wlan.lib)
    0x080520e0   0x00000b18   Code   RO         6701    .text               wlan.lib(tls_wl_rc.o)(wlan.lib)
    0x08052bf8   0x000013f0   Code   RO         6741    .text               wlan.lib(tls_wl_rx.o)(wlan.lib)
    0x08053fe8   0x00000324   Code   RO         6806    .text               wlan.lib(tls_wl_scan.o)(wlan.lib)
    0x0805430c   0x0000023c   Code   RO         6841    .text               wlan.lib(tls_wl_sta_info.o)(wlan.lib)
    0x08054548   0x000004a4   Code   RO         6868    .text               wlan.lib(tls_wl_util.o)(wlan.lib)
    0x080549ec   0x00000c0c   Code   RO         6904    .text               wlan.lib(tls_rf_tx_iq.o)(wlan.lib)
    0x080555f8   0x00001158   Code   RO         6936    .text               wlan.lib(tx_lo_cal.o)(wlan.lib)
    0x08056750   0x000000ba   Code   RO         6967    .text               wlan.lib(aes_unwrap.o)(wlan.lib)
    0x0805680a   0x00000036   Code   RO         7028    .text               wlan.lib(ap_mlme.o)(wlan.lib)
    0x08056840   0x000004c8   Code   RO         7063    .text               wlan.lib(beacon.o)(wlan.lib)
    0x08056d08   0x0000010c   Code   RO         7121    .text               wlan.lib(common.o)(wlan.lib)
    0x08056e14   0x000016f4   Code   RO         7142    .text               wlan.lib(wpa_auth.o)(wlan.lib)
    0x08058508   0x00000080   Code   RO         7208    .text               wlan.lib(wpa_auth_glue.o)(wlan.lib)
    0x08058588   0x0000068c   Code   RO         7257    .text               wlan.lib(wpa_auth_ie.o)(wlan.lib)
    0x08058c14   0x0000055c   Code   RO         7297    .text               wlan.lib(wpa_common.o)(wlan.lib)
    0x08059170   0x00000244   Code   RO         7325    .text               wlan.lib(hostapd_wpa_driver.o)(wlan.lib)
    0x080593b4   0x00000168   Code   RO         7380    .text               wlan.lib(tls_rf_fft.o)(wlan.lib)
    0x0805951c   0x000000a8   Code   RO         7422    .text               wlan.lib(aes_wrap.o)(wlan.lib)
    0x080595c4   0x00000066   Code   RO         7459    .text               mc_w.l(uldiv.o)(mc_w.l)
    0x0805962a   0x0000005a   Code   RO         7461    .text               mc_w.l(ldiv.o)(mc_w.l)
    0x08059684   0x00000008   Code   RO         7463    .text               mc_w.l(ctype_o.o)(mc_w.l)
    0x0805968c   0x00000012   Code   RO         7485    .text               mc_w.l(isspace_o.o)(mc_w.l)
    0x0805969e   0x0000000c   Code   RO         7491    .text               mc_w.l(toupper.o)(mc_w.l)
    0x080596aa   0x0000000c   Code   RO         7493    .text               mc_w.l(tolower.o)(mc_w.l)
    0x080596b6   0x00000002   PAD
    0x080596b8   0x00000024   Code   RO         7495    .text               mc_w.l(rand.o)(mc_w.l)
    0x080596dc   0x00000042   Code   RO         7508    .text               mc_w.l(memmove.o)(mc_w.l)
    0x0805971e   0x00000026   Code   RO         7514    .text               mc_w.l(memseta.o)(mc_w.l)
    0x08059744   0x0000001c   Code   RO         7516    .text               mc_w.l(strcat.o)(mc_w.l)
    0x08059760   0x0000002c   Code   RO         7518    .text               mc_w.l(strstr.o)(mc_w.l)
    0x0805978c   0x00000018   Code   RO         7520    .text               mc_w.l(strncpy.o)(mc_w.l)
    0x080597a4   0x00000012   Code   RO         7522    .text               mc_w.l(strchr.o)(mc_w.l)
    0x080597b6   0x00000010   Code   RO         7524    .text               mc_w.l(strlen.o)(mc_w.l)
    0x080597c6   0x0000001c   Code   RO         7526    .text               mc_w.l(strcmp.o)(mc_w.l)
    0x080597e2   0x00000014   Code   RO         7528    .text               mc_w.l(memchr.o)(mc_w.l)
    0x080597f6   0x0000001a   Code   RO         7530    .text               mc_w.l(memcmp.o)(mc_w.l)
    0x08059810   0x00000012   Code   RO         7534    .text               mc_w.l(strcpy.o)(mc_w.l)
    0x08059822   0x0000001e   Code   RO         7536    .text               mc_w.l(strncmp.o)(mc_w.l)
    0x08059840   0x0000002a   Code   RO         7554    .text               mc_w.l(strcasecmp.o)(mc_w.l)
    0x0805986a   0x00000002   PAD
    0x0805986c   0x00000038   Code   RO         7852    .text               mc_w.l(__0sscanf.o)(mc_w.l)
    0x080598a4   0x0000014e   Code   RO         7856    .text               mc_w.l(_scanf_int.o)(mc_w.l)
    0x080599f2   0x000000d8   Code   RO         7858    .text               mc_w.l(_scanf_str.o)(mc_w.l)
    0x08059aca   0x0000001a   Code   RO         7862    .text               mc_w.l(atoi.o)(mc_w.l)
    0x08059ae4   0x0000001a   Code   RO         7864    .text               mc_w.l(atol.o)(mc_w.l)
    0x08059afe   0x0000014a   Code   RO         7876    .text               mf_w.l(dadd.o)(mf_w.l)
    0x08059c48   0x000000e2   Code   RO         7878    .text               mf_w.l(dmul.o)(mf_w.l)
    0x08059d2a   0x000000de   Code   RO         7880    .text               mf_w.l(ddiv.o)(mf_w.l)
    0x08059e08   0x0000002e   Code   RO         7882    .text               mf_w.l(dscalb.o)(mf_w.l)
    0x08059e36   0x00000022   Code   RO         7886    .text               mf_w.l(dflti.o)(mf_w.l)
    0x08059e58   0x0000001a   Code   RO         7888    .text               mf_w.l(dfltui.o)(mf_w.l)
    0x08059e72   0x0000003e   Code   RO         7892    .text               mf_w.l(dfixi.o)(mf_w.l)
    0x08059eb0   0x00000030   Code   RO         7894    .text               mf_w.l(dfixul.o)(mf_w.l)
    0x08059ee0   0x00000028   Code   RO         7900    .text               mf_w.l(cdrcmple.o)(mf_w.l)
    0x08059f08   0x0000002c   Code   RO         7922    .text               mc_w.l(uidiv.o)(mc_w.l)
    0x08059f34   0x0000001e   Code   RO         7924    .text               mc_w.l(llshl.o)(mc_w.l)
    0x08059f52   0x00000020   Code   RO         7926    .text               mc_w.l(llushr.o)(mc_w.l)
    0x08059f72   0x00000024   Code   RO         7928    .text               mc_w.l(llsshr.o)(mc_w.l)
    0x08059f96   0x00000020   Code   RO         7935    .text               mc_w.l(_chval.o)(mc_w.l)
    0x08059fb6   0x00000002   PAD
    0x08059fb8   0x0000002c   Code   RO         7937    .text               mc_w.l(scanf_char.o)(mc_w.l)
    0x08059fe4   0x00000040   Code   RO         7939    .text               mc_w.l(_sgetc.o)(mc_w.l)
    0x0805a024   0x00000070   Code   RO         7943    .text               mc_w.l(strtol.o)(mc_w.l)
    0x0805a094   0x00000000   Code   RO         7947    .text               mc_w.l(iusefp.o)(mc_w.l)
    0x0805a094   0x000000c2   Code   RO         7950    .text               mf_w.l(depilogue.o)(mf_w.l)
    0x0805a156   0x00000002   PAD
    0x0805a158   0x00000024   Code   RO         7954    .text               mc_w.l(init.o)(mc_w.l)
    0x0805a17c   0x00000338   Code   RO         7958    .text               mc_w.l(_scanf.o)(mc_w.l)
    0x0805a4b4   0x0000009c   Code   RO         7960    .text               mc_w.l(_strtoul.o)(mc_w.l)
    0x0805a550   0x0000005c   Code   RO         7977    .text               mc_w.l(__dczerorl2.o)(mc_w.l)
    0x0805a5ac   0x00000020   Code   RO         7789    i.__0printf         mc_w.l(printfa.o)(mc_w.l)
    0x0805a5cc   0x00000028   Code   RO         7790    i.__0snprintf       mc_w.l(printfa.o)(mc_w.l)
    0x0805a5f4   0x00000028   Code   RO         7791    i.__0sprintf        mc_w.l(printfa.o)(mc_w.l)
    0x0805a61c   0x00000008   Code   RO         7845    i.__aeabi_errno_addr  mc_w.l(errno.o)(mc_w.l)
    0x0805a624   0x0000005c   Code   RO         7821    i.__free$realloc    mc_w.l(mallocr.o)(mc_w.l)
    0x0805a680   0x00000050   Code   RO         7822    i.__malloc$realloc  mc_w.l(mallocr.o)(mc_w.l)
    0x0805a6d0   0x0000000e   Code   RO         7971    i.__scatterload_copy  mc_w.l(handlers.o)(mc_w.l)
    0x0805a6de   0x00000002   Code   RO         7972    i.__scatterload_null  mc_w.l(handlers.o)(mc_w.l)
    0x0805a6e0   0x0000000e   Code   RO         7973    i.__scatterload_zeroinit  mc_w.l(handlers.o)(mc_w.l)
    0x0805a6ee   0x00000002   PAD
    0x0805a6f0   0x00000154   Code   RO         7796    i._fp_digits        mc_w.l(printfa.o)(mc_w.l)
    0x0805a844   0x000006d4   Code   RO         7797    i._printf_core      mc_w.l(printfa.o)(mc_w.l)
    0x0805af18   0x00000026   Code   RO         7798    i._printf_post_padding  mc_w.l(printfa.o)(mc_w.l)
    0x0805af3e   0x0000002e   Code   RO         7799    i._printf_pre_padding  mc_w.l(printfa.o)(mc_w.l)
    0x0805af6c   0x00000016   Code   RO         7800    i._snputc           mc_w.l(printfa.o)(mc_w.l)
    0x0805af82   0x0000000a   Code   RO         7801    i._sputc            mc_w.l(printfa.o)(mc_w.l)
    0x0805af8c   0x00000048   Code   RO         7823    i.internal_alloc    mc_w.l(mallocr.o)(mc_w.l)
    0x0805afd4   0x00000070   Code   RO         7824    i.realloc           mc_w.l(mallocr.o)(mc_w.l)
    0x0805b044   0x00000004   Data   RO          199    .constdata          wm_main.o
    0x0805b048   0x00000006   Data   RO          200    .constdata          wm_main.o
    0x0805b04e   0x00000002   PAD
    0x0805b050   0x00000044   Data   RO          410    .constdata          wm_driver.o
    0x0805b094   0x00000ad8   Data   RO          666    .constdata          wm_common.o
    0x0805bb6c   0x00000066   Data   RO         1525    .constdata          wm_oneshot_airkiss.o
    0x0805bbd2   0x00000103   Data   RO         1558    .constdata          wm_oneshot_lsd.o
    0x0805bcd5   0x00000003   PAD
    0x0805bcd8   0x000001bd   Data   RO         1594    .constdata          wm_cmd.o
    0x0805be95   0x00000003   PAD
    0x0805be98   0x00000004   Data   RO         1745    .constdata          wm_rtos.o
    0x0805be9c   0x00000067   Data   RO         1746    .constdata          wm_rtos.o
    0x0805bf03   0x00000001   PAD
    0x0805bf04   0x00000002   Data   RO         1834    .constdata          lwip2.0.3.o
    0x0805bf06   0x00000002   Data   RO         1835    .constdata          lwip2.0.3.o
    0x0805bf08   0x00000002   Data   RO         1836    .constdata          lwip2.0.3.o
    0x0805bf0a   0x00000002   Data   RO         1837    .constdata          lwip2.0.3.o
    0x0805bf0c   0x00000002   Data   RO         1838    .constdata          lwip2.0.3.o
    0x0805bf0e   0x00000002   Data   RO         1839    .constdata          lwip2.0.3.o
    0x0805bf10   0x00000002   Data   RO         1840    .constdata          lwip2.0.3.o
    0x0805bf12   0x00000002   Data   RO         1841    .constdata          lwip2.0.3.o
    0x0805bf14   0x00000002   Data   RO         1842    .constdata          lwip2.0.3.o
    0x0805bf16   0x00000002   Data   RO         1843    .constdata          lwip2.0.3.o
    0x0805bf18   0x00000002   Data   RO         1844    .constdata          lwip2.0.3.o
    0x0805bf1a   0x00000002   Data   RO         1845    .constdata          lwip2.0.3.o
    0x0805bf1c   0x00000002   Data   RO         1846    .constdata          lwip2.0.3.o
    0x0805bf1e   0x00000002   Data   RO         1847    .constdata          lwip2.0.3.o
    0x0805bf20   0x00000002   Data   RO         1848    .constdata          lwip2.0.3.o
    0x0805bf22   0x00000002   Data   RO         1849    .constdata          lwip2.0.3.o
    0x0805bf24   0x00000184   Data   RO         1850    .constdata          lwip2.0.3.o
    0x0805c0a8   0x00000010   Data   RO         3044    .constdata          wm_http_compile.o
    0x0805c0b8   0x0000006a   Data   RO         3168    .constdata          wm_matrixssl_compile.o
    0x0805c122   0x00000077   Data   RO         4295    .constdata          fs.o
    0x0805c199   0x00001062   Data   RO         4296    .constdata          fs.o
    0x0805d1fb   0x000006f4   Data   RO         4297    .constdata          fs.o
    0x0805d8ef   0x000001cd   Data   RO         4298    .constdata          fs.o
    0x0805dabc   0x0000006c   Data   RO         4299    .constdata          fs.o
    0x0805db28   0x000001b6   Data   RO         4300    .constdata          fs.o
    0x0805dcde   0x00000002   PAD
    0x0805dce0   0x00000010   Data   RO         4301    .constdata          fs.o
    0x0805dcf0   0x00000010   Data   RO         4302    .constdata          fs.o
    0x0805dd00   0x00000010   Data   RO         4303    .constdata          fs.o
    0x0805dd10   0x00000010   Data   RO         4304    .constdata          fs.o
    0x0805dd20   0x00000010   Data   RO         4305    .constdata          fs.o
    0x0805dd30   0x00000010   Data   RO         4306    .constdata          fs.o
    0x0805dd40   0x0000007f   Data   RO         4345    .constdata          httpd.o
    0x0805ddbf   0x00000001   PAD
    0x0805ddc0   0x00000210   Data   RO         4381    .constdata          web.o
    0x0805dfd0   0x00000222   Data   RO         4420    .constdata          libairkiss_log.lib(airkiss_log.o)(libairkiss_log.lib)
    0x0805e1f2   0x00000002   PAD
    0x0805e1f4   0x00001038   Data   RO         4423    .constdata          wlan.lib(aesMatrix.o)(wlan.lib)
    0x0805f22c   0x00000090   Data   RO         4449    .constdata          wlan.lib(ap.o)(wlan.lib)
    0x0805f2bc   0x00000020   Data   RO         4676    .constdata          wlan.lib(random.o)(wlan.lib)
    0x0805f2dc   0x00000100   Data   RO         4819    .constdata          wlan.lib(sha256.o)(wlan.lib)
    0x0805f3dc   0x00000040   Data   RO         5201    .constdata          wlan.lib(tls_wl_rf.o)(wlan.lib)
    0x0805f41c   0x00000078   Data   RO         5202    .constdata          wlan.lib(tls_wl_rf.o)(wlan.lib)
    0x0805f494   0x00000068   Data   RO         5820    .constdata          wlan.lib(hostapd.o)(wlan.lib)
    0x0805f4fc   0x000000b0   Data   RO         6232    .constdata          wlan.lib(wpa.o)(wlan.lib)
    0x0805f5ac   0x00000050   Data   RO         6662    .constdata          wlan.lib(tls_wl_phy.o)(wlan.lib)
    0x0805f5fc   0x00000006   Data   RO         6742    .constdata          wlan.lib(tls_wl_rx.o)(wlan.lib)
    0x0805f602   0x00000800   Data   RO         7381    .constdata          wlan.lib(tls_rf_fft.o)(wlan.lib)
    0x0805fe02   0x00000081   Data   RO         7464    .constdata          mc_w.l(ctype_o.o)(mc_w.l)
    0x0805fe83   0x00000001   PAD
    0x0805fe84   0x00000004   Data   RO         7465    .constdata          mc_w.l(ctype_o.o)(mc_w.l)
    0x0805fe88   0x0000026f   Data   RO         1595    .conststring        wm_cmd.o
    0x080600f7   0x00000068   Data   RO         1852    .conststring        lwip2.0.3.o
    0x0806015f   0x0000003f   Data   RO         3169    .conststring        wm_matrixssl_compile.o
    0x0806019e   0x00000048   Data   RO         4347    .conststring        httpd.o
    0x080601e6   0x000001f1   Data   RO         4382    .conststring        web.o
    0x080603d7   0x0000000f   Data   RO         4383    .conststring        web.o
    0x080603e6   0x00000049   Data   RO         5147    .conststring        wlan.lib(tls_wl_if.o)(wlan.lib)
    0x0806042f   0x00000001   PAD
    0x08060430   0x00000020   Data   RO         7969    Region$$Table       anon$$obj.o


    Execution Region RW_IRAM1 (Base: 0x20000000, Size: 0x0002c0e8, Max: 0x00038000, ABSOLUTE, COMPRESSED[0x00000f8c])

    Base Addr    Size         Type   Attr      Idx    E Section Name        Object

    0x20000000   0x00000004   Data   RW          140    .data               retarget.o
    0x20000004   0x00000004   Data   RW          201    .data               wm_main.o
    0x20000008   0x00000004   Data   RW          374    .data               tls_sys.o
    0x2000000c   0x000000a8   Data   RW          413    .data               wm_driver.o
    0x200000b4   0x00000004   PAD
    0x200000b8   0x00000042   Data   RW          667    .data               wm_common.o
    0x200000fa   0x00000002   PAD
    0x200000fc   0x00000075   Data   RW         1477    .data               wm_wifi_oneshot.o
    0x20000171   0x00000003   PAD
    0x20000174   0x00000012   Data   RW         1526    .data               wm_oneshot_airkiss.o
    0x20000186   0x00000002   PAD
    0x20000188   0x00000022   Data   RW         1559    .data               wm_oneshot_lsd.o
    0x200001aa   0x00000002   PAD
    0x200001ac   0x00000734   Data   RW         1596    .data               wm_cmd.o
    0x200008e0   0x000000a0   Data   RW         1747    .data               wm_rtos.o
    0x20000980   0x000000ec   Data   RW         1853    .data               lwip2.0.3.o
    0x20000a6c   0x00000004   Data   RW         3045    .data               wm_http_compile.o
    0x20000a70   0x00000018   Data   RW         3127    .data               ping.o
    0x20000a88   0x000000f4   Data   RW         3170    .data               wm_matrixssl_compile.o
    0x20000b7c   0x00000010   Data   RW         4270    .data               wm_socket_fwup.o
    0x20000b8c   0x00000014   Data   RW         4348    .data               httpd.o
    0x20000ba0   0x00000014   Data   RW         4384    .data               web.o
    0x20000bb4   0x00000040   Data   RW         4385    .data               web.o
    0x20000bf4   0x00000004   Data   RW         4450    .data               wlan.lib(ap.o)(wlan.lib)
    0x20000bf8   0x00000014   Data   RW         4677    .data               wlan.lib(random.o)(wlan.lib)
    0x20000c0c   0x00000050   Data   RW         4839    .data               wlan.lib(wpa_supplicant.o)(wlan.lib)
    0x20000c5c   0x00000078   Data   RW         4988    .data               wlan.lib(tls_wl_core.o)(wlan.lib)
    0x20000cd4   0x00000044   Data   RW         5087    .data               wlan.lib(tls_wl_hw.o)(wlan.lib)
    0x20000d18   0x00000060   Data   RW         5088    .data               wlan.lib(tls_wl_hw.o)(wlan.lib)
    0x20000d78   0x000000a8   Data   RW         5089    .data               wlan.lib(tls_wl_hw.o)(wlan.lib)
    0x20000e20   0x00000018   Data   RW         5148    .data               wlan.lib(tls_wl_if.o)(wlan.lib)
    0x20000e38   0x00000214   Data   RW         5203    .data               wlan.lib(tls_wl_rf.o)(wlan.lib)
    0x2000104c   0x00000014   Data   RW         5244    .data               wlan.lib(tls_wl_tx.o)(wlan.lib)
    0x20001060   0x00000010   Data   RW         5320    .data               wlan.lib(wm_wifi_api.o)(wlan.lib)
    0x20001070   0x0000001c   Data   RW         5525    .data               wlan.lib(wm_wifi_oneshot_api.o)(wlan.lib)
    0x2000108c   0x00000088   Data   RW         5563    .data               wlan.lib(litepoint.o)(wlan.lib)
    0x20001114   0x00000004   Data   RW         6480    .data               wlan.lib(tls_wl_bss.o)(wlan.lib)
    0x20001118   0x0000031c   Data   RW         6702    .data               wlan.lib(tls_wl_rc.o)(wlan.lib)
    0x20001434   0x00000008   Data   RW         6743    .data               wlan.lib(tls_wl_rx.o)(wlan.lib)
    0x2000143c   0x000009bc   Data   RW         6906    .data               wlan.lib(tls_rf_tx_iq.o)(wlan.lib)
    0x20001df8   0x00000160   Data   RW         6938    .data               wlan.lib(tx_lo_cal.o)(wlan.lib)
    0x20001f58   0x00000004   Data   RW         7382    .data               wlan.lib(tls_rf_fft.o)(wlan.lib)
    0x20001f5c   0x00000004   Data   RW         7383    .data               wlan.lib(tls_rf_fft.o)(wlan.lib)
    0x20001f60   0x00000004   Data   RW         7496    .data               mc_w.l(rand.o)(mc_w.l)
    0x20001f64   0x00000004   Data   RW         7848    .data               mc_w.l(errno.o)(mc_w.l)
    0x20001f68   0x00000004   Data   RW         7933    .data               mc_w.l(mvars.o)(mc_w.l)
    0x20001f6c   0x00000004   Data   RW         7934    .data               mc_w.l(mvars.o)(mc_w.l)
    0x20001f70   0x00000400   Zero   RW          130    .bss                startup_venus.o
    0x20002370   0x00000180   Zero   RW          139    .bss                retarget.o
    0x200024f0   0x000012c0   Zero   RW          198    .bss                wm_main.o
    0x200037b0   0x00000400   Zero   RW          373    .bss                tls_sys.o
    0x20003bb0   0x00000798   Zero   RW          408    .bss                wm_driver.o
    0x20004348   0x00000ef4   Zero   RW          664    .bss                wm_common.o
    0x2000523c   0x00000308   Zero   RW         1301    .bss                dhcp_server.o
    0x20005544   0x00000028   Zero   RW         1452    .bss                dns_server.o
    0x2000556c   0x000019e8   Zero   RW         1476    .bss                wm_wifi_oneshot.o
    0x20006f54   0x000000e8   Zero   RW         1524    .bss                wm_oneshot_airkiss.o
    0x2000703c   0x0000030c   Zero   RW         1557    .bss                wm_oneshot_lsd.o
    0x20007348   0x0000027c   Zero   RW         1592    .bss                wm_cmd.o
    0x200075c4   0x000007d0   Zero   RW         1593    .bss                wm_cmd.o
    0x20007d94   0x00000004   PAD
    0x20007d98   0x00003614   Zero   RW         1744    .bss                wm_rtos.o
    0x2000b3ac   0x000011e0   Zero   RW         1832    .bss                lwip2.0.3.o
    0x2000c58c   0x00000400   Zero   RW         3043    .bss                wm_http_compile.o
    0x2000c98c   0x00000448   Zero   RW         3126    .bss                ping.o
    0x2000cdd4   0x00000d80   Zero   RW         3166    .bss                wm_matrixssl_compile.o
    0x2000db54   0x000000f0   Zero   RW         4294    .bss                fs.o
    0x2000dc44   0x00000094   Zero   RW         4675    .bss                wlan.lib(random.o)(wlan.lib)
    0x2000dcd8   0x00002200   Zero   RW         4837    .bss                wlan.lib(wpa_supplicant.o)(wlan.lib)
    0x2000fed8   0x00001064   Zero   RW         4986    .bss                wlan.lib(tls_wl_core.o)(wlan.lib)
    0x20010f3c   0x000000d8   Zero   RW         5243    .bss                wlan.lib(tls_wl_tx.o)(wlan.lib)
    0x20011014   0x00000488   Zero   RW         5524    .bss                wlan.lib(wm_wifi_oneshot_api.o)(wlan.lib)
    0x2001149c   0x00000021   Zero   RW         6869    .bss                wlan.lib(tls_wl_util.o)(wlan.lib)
    0x200114bd   0x00000003   PAD
    0x200114c0   0x00000800   Zero   RW         6905    .bss                wlan.lib(tls_rf_tx_iq.o)(wlan.lib)
    0x20011cc0   0x00000400   Zero   RW         6937    .bss                wlan.lib(tx_lo_cal.o)(wlan.lib)
    0x200120c0   0x00000021   Zero   RW         7122    .bss                wlan.lib(common.o)(wlan.lib)
    0x200120e1   0x00000007   PAD
    0x200120e8   0x0001a000   Zero   RW          131    HEAP                startup_venus.o


==============================================================================

Image component sizes


      Code (inc. data)   RO Data    RW Data    ZI Data      Debug   Object Name

      2232         46          0          0        776          0   dhcp_server.o
       804         10          0          0         40          0   dns_server.o
       552         10       7196          0        240          0   fs.o
      2284        204        199         20          0          0   httpd.o
     49568        924        524        236       4576          0   lwip2.0.3.o
        24         18          0          0          0          0   main.o
       208         16          0          0          0          0   misc.o
      1404        424          0         24       1096          0   ping.o
      1342         10          0          4        384          0   retarget.o
        40          8        236          0     107520          0   startup_venus.o
       928         42          0          4       1024          0   tls_sys.o
      1312        220       1040         84          0          0   web.o
     28104       2136       1068       1844       2636          0   wm_cmd.o
     25944       2542       2776         66       3828          0   wm_common.o
     23652        938         68        168       1944          0   wm_driver.o
      6632        504         16          4       1024          0   wm_http_compile.o
       748        194          0          0          0          0   wm_http_fwup.o
       412         36         10          4       4800          0   wm_main.o
     26246       1224        169        244       3456          0   wm_matrixssl_compile.o
       540         80        102         18        232          0   wm_oneshot_airkiss.o
      2084        346        259         34        780          0   wm_oneshot_lsd.o
      7650        334        107        160      13844          0   wm_rtos.o
       364         36          0         16          0          0   wm_socket_fwup.o
         0          0          0          0          0          0   wm_uart_demo.o
      4940        356          0        117       6632          0   wm_wifi_oneshot.o

    ----------------------------------------------------------------------
    188020      10658      13814       3060     154836          0   Object Totals
         0          0         32          0          0          0   (incl. Generated)
         6          0         12         13          4          3   (incl. Padding)

    ----------------------------------------------------------------------

      Code (inc. data)   RO Data    RW Data    ZI Data      Debug   Library Member Name

      2496        528        546          0          0          0   airkiss_log.o
        56          8          0          0          0          0   __0sscanf.o
        92          0          0          0          0          0   __dczerorl2.o
        32          0          0          0          0          0   _chval.o
       824          6          0          0          0          0   _scanf.o
       334          0          0          0          0          0   _scanf_int.o
       216          0          0          0          0          0   _scanf_str.o
        64          0          0          0          0          0   _sgetc.o
       156          0          0          0          0          0   _strtoul.o
        26          0          0          0          0          0   atoi.o
        26          0          0          0          0          0   atol.o
         8          4        133          0          0          0   ctype_o.o
         0          0          0          0          0          0   entry.o
         8          4          0          0          0          0   entry2.o
         4          0          0          0          0          0   entry5.o
         8          4          0          0          0          0   entry7.o
         8          4          0          4          0          0   errno.o
        30          0          0          0          0          0   handlers.o
        36          8          0          0          0          0   init.o
        18          0          0          0          0          0   isspace_o.o
         0          0          0          0          0          0   iusefp.o
        90          0          0          0          0          0   ldiv.o
        30          0          0          0          0          0   llshl.o
        36          0          0          0          0          0   llsshr.o
        32          0          0          0          0          0   llushr.o
       356         28          0          0          0          0   mallocr.o
        20          0          0          0          0          0   memchr.o
        26          0          0          0          0          0   memcmp.o
        66          0          0          0          0          0   memmove.o
        38          0          0          0          0          0   memseta.o
         0          0          0          8          0          0   mvars.o
      2316        102          0          0          0          0   printfa.o
        36         10          0          4          0          0   rand.o
        44         10          0          0          0          0   scanf_char.o
        42          0          0          0          0          0   strcasecmp.o
        28          0          0          0          0          0   strcat.o
        18          0          0          0          0          0   strchr.o
        28          0          0          0          0          0   strcmp.o
        18          0          0          0          0          0   strcpy.o
        16          0          0          0          0          0   strlen.o
        30          0          0          0          0          0   strncmp.o
        24          0          0          0          0          0   strncpy.o
        44          0          0          0          0          0   strstr.o
       112          0          0          0          0          0   strtol.o
        12          0          0          0          0          0   tolower.o
        12          0          0          0          0          0   toupper.o
        44          0          0          0          0          0   uidiv.o
       102          0          0          0          0          0   uldiv.o
        40          2          0          0          0          0   cdrcmple.o
       330          0          0          0          0          0   dadd.o
       222          0          0          0          0          0   ddiv.o
       194          0          0          0          0          0   depilogue.o
        62          0          0          0          0          0   dfixi.o
        48          0          0          0          0          0   dfixul.o
        34          0          0          0          0          0   dflti.o
        26          0          0          0          0          0   dfltui.o
       226          0          0          0          0          0   dmul.o
        46          0          0          0          0          0   dscalb.o
      2228         28       4152          0          0          0   aesMatrix.o
       186          0          0          0          0          0   aes_unwrap.o
       168          0          0          0          0          0   aes_wrap.o
      2176         36        144          4          0          0   ap.o
        54          0          0          0          0          0   ap_mlme.o
      1224          0          0          0          0          0   beacon.o
       626          0          0          0          0          0   bss.o
       268         14          0          0         33          0   common.o
      3996         24          0          0          0          0   events.o
       804          4        104          0          0          0   hostapd.o
      1452         16          0          0          0          0   hostapd_sta_info.o
       580          0          0          0          0          0   hostapd_wpa_driver.o
      2574          0          0          0          0          0   ieee802_11.o
       674          0          0          0          0          0   ieee802_11_common.o
       148          0          0          0          0          0   ieee802_1x.o
      5452          0          0          0          0          0   libtommath.o
      1344         54          0        136          0          0   litepoint.o
      2396        262          0          0          0          0   md5.o
       108          0          0          0          0          0   os_internal.o
       384         14         32         20        148          0   random.o
       278          0          0          0          0          0   rc4.o
       492          4          0          0          0          0   scan.o
       248          0          0          0          0          0   sha1-pbkdf2.o
       382          0          0          0          0          0   sha1.o
      4792         42          0          0          0          0   sha1_internal.o
      1144         36        256          0          0          0   sha256.o
       240         10          0          0          0          0   tkip_countermeasures.o
       360         14       2048          8          0          0   tls_rf_fft.o
      3084        104          0       2492       2048          0   tls_rf_tx_iq.o
      1768         18          0          4          0          0   tls_wl_bss.o
      2500         96          0        120       4196          0   tls_wl_core.o
      3284        166          0        332          0          0   tls_wl_hw.o
      3048         48         73         24          0          0   tls_wl_if.o
       830          0          0          0          0          0   tls_wl_key.o
      3260         20          0          0          0          0   tls_wl_mgmt.o
      6088         86          0          0          0          0   tls_wl_mlme.o
       136         18         80          0          0          0   tls_wl_phy.o
      2840         38          0        796          0          0   tls_wl_rc.o
      2164        152        184        532          0          0   tls_wl_rf.o
      5104         72          6          8          0          0   tls_wl_rx.o
       804          4          0          0          0          0   tls_wl_scan.o
       572          6          0          0          0          0   tls_wl_sta_info.o
      4820         86          0         20        216          0   tls_wl_tx.o
      1188         26          0          0         33          0   tls_wl_util.o
      4440        154          0        352       1024          0   tx_lo_cal.o
      4908        102          0         16          0          0   wm_wifi_api.o
      2152         40          0         28       1160          0   wm_wifi_oneshot_api.o
      4170        110        176          0          0          0   wpa.o
      5876        160          0          0          0          0   wpa_auth.o
       128          0          0          0          0          0   wpa_auth_glue.o
      1676         12          0          0          0          0   wpa_auth_ie.o
      1372         86          0          0          0          0   wpa_common.o
      1146          0          0          0          0          0   wpa_driver.o
      1012         10          0          0          0          0   wpa_ie.o
      5672        230          0         80       8704          0   wpa_supplicant.o
       322          0          0          0          0          0   wpabuf.o
       308          0          0          0          0          0   wpas_glue.o

    ----------------------------------------------------------------------
    118756       3120       7938       4988      17572          0   Library Totals
        16          0          4          0         10          0   (incl. Padding)

    ----------------------------------------------------------------------

      Code (inc. data)   RO Data    RW Data    ZI Data      Debug   Library Name

      2496        528        546          0          0        416   libairkiss_log.lib
      5566        188        133         16          0       4084   mc_w.l
      1228          2          0          0          0        976   mf_w.l
    109450       2402       7255       4972      17562    2253213   wlan.lib

    ----------------------------------------------------------------------
    118756       3120       7938       4988      17572          0   Library Totals

    ----------------------------------------------------------------------

==============================================================================


      Code (inc. data)   RO Data    RW Data    ZI Data      Debug   

    306776      13778      21752       8048     172408    3824192   Grand Totals
    306776      13778      21752       3980     172408    3824192   ELF Image Totals (compressed)
    306776      13778      21752       3980          0          0   ROM Totals

==============================================================================

    Total RO  Size (Code + RO Data)               328528 ( 320.83kB)
    Total RW  Size (RW Data + ZI Data)            180456 ( 176.23kB)
    Total ROM Size (Code + RO Data + RW Data)     332508 ( 324.71kB)

==============================================================================

